(dp1
S'output'
p2
S"<type 'exceptions.SyntaxError'> invalid syntax (index.html, line 3)"
p3
sS'layer'
p4
S'/home/bruce/projects/web2py/applications/init/views/default/index.html'
p5
sS'code'
p6
S'response.write(\'<!DOCTYPE html>\\n<html lang="en"><head>\\n<meta http-equiv="content-type" content="text/html; charset=UTF-8">\\n    <meta charset="utf-8">\\n    <title>Movuca, The Social CMS | Create your own social network!</title>\\n    <meta name="viewport" content="width=device-width, initial-scale=1.0">\\n    <meta name="apple-mobile-web-app-capable" content="yes">\\n    <meta name="description" content="">\\n    <meta name="author" content="">\\n\\n    <!-- Le HTML5 shim, for IE6-8 support of HTML5 elements -->\\n    <!--[if lt IE 9]>\\n      <script src="http://html5shim.googlecode.com/svn/trunk/html5.js"></script>\\n    <![endif]-->\\n\\n    <!-- Le styles -->\\n    <link href="\', escape=False)\nresponse.write(URL(\'static\',\'index_files/bootstrap.css\')\nresponse.write(\'" rel="stylesheet">\\n    <link href="index_files/docs.css" rel="stylesheet">\\n    <link href="index_files/prettify.css" rel="stylesheet">\\n\\n    <!-- Le fav and touch icons -->\\n    <link rel="shortcut icon" href="index_files/favicon.ico">\\n  </head>\\n\\n  <body data-rendering="true">\\n\\n    <!-- Navbar\\n    ================================================== -->\\n    <div class="navbar navbar-fixed" data-scrollspy="scrollspy">\\n      <div class="navbar-inner">\\n        <div class="container">\\n          <a class="brand" href="http://mrtopf.de/bootstrap/docs/index.html">Movuca The Social CMS</a>\\n          <ul class="nav">\\n            <li><a href="/">Home</a></li>\\n            <li><a href="http://movu.ca/demo" target="_blank">Demo</a></li>\\n            <li><a href="http://github.com/rochacbruno/Movuca" target="_blank">Github</a></li>\\n          </ul>\\n        </div>\\n      </div>\\n    </div>\\n\\n    <div class="container">\\n\\n      <div id="overview">\\n\\n        <!-- Masthead\\n        ================================================== -->\\n        <header class="jumbotron masthead">\\n          <div class="inner">\\n            <img src="index_files/logo.png" width=300 />\\n            <br /><br />\\n            <p class="lead">Movuca is a social network and CMS platform. Movuca is open source, flexible, easy to customize, deploy and use.</p>\\n            <p class="download-info">\\n              <a href="https://github.com/rochacbruno/movuca/" class="btn  btn-large">Download on GitHub</a>\\n              <a href="http://movu.ca/demo" class="btn primary btn-large"> Demo \\xe2\\x86\\x92</a>\\n              Currently v0.0.1 (alpha)\\n            </p>\\n\\n            <div class="benefits">\\n              <h4>Feature highlights</h4>\\n              <ul>\\n                <li><span>\\xc3\\x97</span> Built on Python and web2py</li>\\n                <li><span>\\xc3\\x97</span> Complete docs</li>\\n                <li><span>\\xc3\\x97</span> Multiple content types</li>\\n                <li><span>\\xc3\\x97</span> Fast and scalable</li>\\n                <li><span>\\xc3\\x97</span> Custom plugins and modules</li>\\n                <li><span>\\xc3\\x97</span> Easy to design themes</li>\\n                <li><span>\\xc3\\x97</span> Dozens of components</li>\\n              </ul>\\n            </div>\\n          </div>\\n        </header>\\n\\n        <ul class="quick-links">\\n          <li><strong>Quick links</strong></li>\\n          <li><a href="https://github.com/rochacbruno/movuca">GitHub</a></li>\\n          <li><a href="https://github.com/rochacbruno/movuca/issues?state=open">Issues</a></li>\\n          <li><a href="https://github.com/rochacbruno/movuca/Roadmap">Roadmap</a></li>\\n          <li><a href="https://github.com/rochacbruno/movuca/Changelog">Changelog</a></li>\\n          <li class="divider">\\xc2\\xb7</li>\\n\\n          <li>\\n            <iframe class="github-btn" src="http://markdotto.github.com/github-buttons/github-btn.html?user=rochacbruno&repo=Movuca&type=watch&count=true"\\n  allowtransparency="true" frameborder="0" scrolling="0" width="110px" height="20px"></iframe>\\n          </li>\\n\\n          <li>\\n            <iframe class="github-btn" src="http://markdotto.github.com/github-buttons/github-btn.html?user=rochacbruno&repo=Movuca&type=fork&count=true"\\n  allowtransparency="true" frameborder="0" scrolling="0" width="95px" height="20px"></iframe>\\n          </li>\\n\\n          <li class="divider">\\xc2\\xb7</li>\\n          <li class="follow-btn">\\n            <a href="https://twitter.com/movucacms" class="twitter-follow-button" data-width="145px" data-link-color="#0069D6" data-show-count="false">Follow @movucacms</a><script src="http://platform.twitter.com/widgets.js" type="text/javascript"></script>\\n          </li>\\n\\n          <li class="tweet-btn">\\n            <a href="https://twitter.com/share" class="twitter-share-button" data-url="http://movu.ca" data-count="horizontal" data-via="movucacms" data-related="movucacms:The Social CMS">Tweet</a><script type="text/javascript" src="http://platform.twitter.com/widgets.js"></script>\\n          </li>\\n        </ul>\\n\\n\\n        <div class="marketing">\\n         \\n\\n          <h1>Create - Explore - Share</h1>\\n          <div class="row">\\n            <div class="span4">\\n              <img class="icon" src="index_files/glyphicons_042_group.png">\\n              <h2>Social impact</h2>\\n              <p>Web-based social networking services make it possible to connect people who share interests and activities across political, economic, and geographic borders.</p>\\n            </div>\\n            <div class="span4">\\n              <img class="icon" src="index_files/glyphicons_079_podium.png">\\n              <h2>Business Applications</h2>\\n              <p>Connect people at low cost; this can be beneficial for entrepreneurs and small businesses looking to expand their contact bases. These networks often act as a customer relationship management tool for companies selling products and services.</p>\\n            </div>\\n            <div class="span4">\\n              <img class="icon" src="index_files/glyphicons_163_iphone.png">\\n              <h2>Cross-everything</h2>\\n              <p>Themes adaptated to be used in mobile - tablets and smartphones, too. (coming an Android & iPhone app for RSS feeds)</p>\\n            </div>\\n          </div><!--/row-->\\n          <div class="row">\\n            <div class="span4">\\n              <img class="icon" src="index_files/glyphicons_155_show_thumbnails.png">\\n              <h2>Multiple content types</h2>\\n              <p>Content can be defined as nearly anything: documents, movies, text, pictures, phone numbers, scientific data, and so forth..</p>\\n            </div>\\n            <div class="span4">\\n              <img class="icon" src="index_files/glyphicons_214_resize_small.png">\\n              <h2>Customizable</h2>\\n              <p>Easy to customize, create new modules, define new content types and personalize the layout with a CSS/HTML Theme.</p>\\n            </div>\\n            <div class="span4">\\n              <img class="icon" src="index_files/glyphicons_266_book_open.png">\\n              <h2>Documentation</h2>\\n              <p>Fully documented API and a lot of examples on how to create your own content types.</p>\\n            </div>\\n          </div><!--/row-->\\n          <div class="row">\\n            <div class="span4">\\n              <img class="icon" src="index_files/glyphicons_082_roundabout.png">\\n              <h2>Active Development</h2>\\n              <p>Derived from the work of web2py development team, the development of Movuca is very active and commited to security, compatibility and easy of use.</p>\\n            </div>\\n            <div class="span4">\\n              <img class="icon" src="index_files/glyphicons_009_magic.png">\\n              <h2>Deploy like a magic</h2>\\n              <p>Easy to deploy your own Social web site on any Python hosting service.</p>\\n            </div>\\n            <div class="span4">\\n              <img class="icon" src="index_files/mongo_black.png">\\n              <h2>Scalable</h2>\\n              <p>No problem if you go from 10 to thousand users. Movuca is prepared to scale using the best of tools like Mongo, PostGres, Nginx and Redis.</p>\\n            </div>\\n          </div><!--/row-->\\n          <div class="row">\\n            <div class="span3">\\n              <img class="small-icon" src="index_files/python_black.png">\\n              <h3>Python</h3>\\n              <p>Powered by the best programming language...</p>\\n            </div>\\n            <div class="span3">\\n              <img class="small-icon" src="index_files/web2py_black.png">\\n              <h3>web2py</h3>\\n              <p>... on top of the best web development MVC framework.</p>\\n            </div>\\n            <div class="span3">\\n              <img class="small-icon" src="index_files/icon-github.png">\\n              <h3>Open-source</h3>\\n              <p>Built for and maintained by the community via <a href="https://github.com/rochacbruno/Movuca">Our GitHub (join us)</a>.</p>\\n            </div>\\n            <div class="span3">\\n              <img class="small-icon" src="index_files/icon-blouweb.png">\\n              <h3>Made at Blouweb</h3>\\n              <p>Brought to you by an experienced <a href="http://twitter.com/blouweb">web development team</a>.</p>\\n            </div>\\n          </div><!--/row-->\\n\\n\\n          <h1>Give it a try!</h1>\\n          <ul class="media-grid example-sites">\\n             <li style="text-align:center;">\\n              <a href="http://movu.ca/demo" target="_blank">\\n                <img src="index_files/home.png" alt="Home">\\n                <span>Index page with social modules</span>\\n              </a>\\n            </li>\\n             <li style="text-align:center;">\\n              <a href="http://movu.ca/demo" target="_blank">\\n                <img src="index_files/create.png" alt="Create">\\n                <span>Rich text editor and media gallery</span>\\n              </a>\\n            </li>\\n            <li style="text-align:center;">\\n              <a href="http://movu.ca/demo" target="_blank">\\n                <img src="index_files/profile.png" alt="Profile">\\n                <span>User profiles</span>\\n              </a>\\n            </li>\\n          </ul>\\n\\n\\n\\n        </div>\\n\\n      </div><!-- /#overview -->\\n\\n\\n      <!-- Footer\\n      ================================================== -->\\n      <footer class="footer">\\n        <p class="pull-right"><a href="#">Back to top</a></p>\\n        <p>This dite is designed using Twitter bootstrap <a href="http://twitter.com/twitter" target="_blank">@twitter</a></p>\\n        <!-- p>Code licensed under the <a href="http://www.apache.org/licenses/LICENSE-2.0" target="_blank">Apache License v2.0</a>. Documentation licensed under <a href="http://creativecommons.org/licenses/by/3.0/">CC BY 3.0</a>.</p -->\\n        <p>Icons from <a href="http://glyphicons.com/">Glyphicons Free</a>, licensed under <a href="http://creativecommons.org/licenses/by/3.0/">CC BY 3.0</a>.</p>\\n      </footer>\\n    </div><!-- /container -->\\n\\n    <!-- Le javascript -->\\n    <!-- Placed at the end of the document so the pages load faster -->\\n    <script src="index_files/jquery-1.js"></script>\\n\\n    <script type="text/javascript">\\n      // When ready...\\n      window.addEventListener("load",function() {\\n        // Set a timeout...\\n        setTimeout(function(){\\n          // Hide the address bar!\\n          window.scrollTo(0, 1);\\n        }, 0);\\n      });\\n\\n      // NOT FINAL BY ANY MEANS, JUST MAH JANK CODE BRO\\n      $(document).ready(function() {\\n        $(\\\'.nav .active\\\').click(function(e) {\\n          e.preventDefault();\\n          $(this).siblings().toggle();\\n        });\\n      });\\n    </script>\\n\\n    <script src="index_files/jquery.js"></script>\\n    <script src="index_files/prettify.js"></script>\\n    <script>$(function () { prettyPrint() })</script>\\n    <script src="index_files/bootstrap-transitions.js"></script>\\n    <script src="index_files/bootstrap-dropdown.js"></script>\\n    <script src="index_files/bootstrap-twipsy.js"></script>\\n    <script src="index_files/bootstrap-scrollspy.js"></script>\\n    <script src="index_files/application.js"></script>\\n\\n  \\n\\n</body></html>\\n\', escape=False)'
p7
sS'snapshot'
p8
(dp9
S'exception'
p10
(dp11
S'__getslice__'
p12
S"<method-wrapper '__getslice__' of exceptions.SyntaxError object>"
p13
sS'text'
p14
S'\'response.write(\\\'" rel="stylesheet">\\\\n    <link h...cript>\\\\n\\\\n  \\\\n\\\\n</body></html>\\\\n\\\', escape=False)\\n\''
p15
sS'__str__'
p16
S"<method-wrapper '__str__' of exceptions.SyntaxError object>"
p17
sS'__reduce__'
p18
S'<built-in method __reduce__ of exceptions.SyntaxError object>'
p19
sS'__dict__'
p20
S'{}'
p21
sS'__sizeof__'
p22
S'<built-in method __sizeof__ of exceptions.SyntaxError object>'
p23
sS'__init__'
p24
S"<method-wrapper '__init__' of exceptions.SyntaxError object>"
p25
sS'__setattr__'
p26
S"<method-wrapper '__setattr__' of exceptions.SyntaxError object>"
p27
sS'__reduce_ex__'
p28
S'<built-in method __reduce_ex__ of exceptions.SyntaxError object>'
p29
sS'__new__'
p30
S'<built-in method __new__ of type object>'
p31
sS'__format__'
p32
S'<built-in method __format__ of exceptions.SyntaxError object>'
p33
sS'__class__'
p34
S"<type 'exceptions.SyntaxError'>"
p35
sS'filename'
p36
S"'/home/bruce/projects/web2py/applications/init/views/default/index.html'"
p37
sS'lineno'
p38
S'3'
sS'msg'
p39
S"'invalid syntax'"
p40
sS'__doc__'
p41
S"'Invalid syntax.'"
p42
sS'__getitem__'
p43
S"<method-wrapper '__getitem__' of exceptions.SyntaxError object>"
p44
sS'__setstate__'
p45
S'<built-in method __setstate__ of exceptions.SyntaxError object>'
p46
sS'__getattribute__'
p47
S"<method-wrapper '__getattribute__' of exceptions.SyntaxError object>"
p48
sS'print_file_and_line'
p49
S'None'
p50
sS'args'
p51
S'(\'invalid syntax\', (\'/home/bruce/projects/web2py/applications/init/views/default/index.html\', 3, 8, \'response.write(\\\'" rel="stylesheet">\\\\n    <link h...cript>\\\\n\\\\n  \\\\n\\\\n</body></html>\\\\n\\\', escape=False)\\n\'))'
p52
sS'__subclasshook__'
p53
S'<built-in method __subclasshook__ of type object>'
p54
sS'offset'
p55
S'8'
sS'__unicode__'
p56
S'<built-in method __unicode__ of exceptions.SyntaxError object>'
p57
sS'__delattr__'
p58
S"<method-wrapper '__delattr__' of exceptions.SyntaxError object>"
p59
sS'__repr__'
p60
S"<method-wrapper '__repr__' of exceptions.SyntaxError object>"
p61
sS'__hash__'
p62
S"<method-wrapper '__hash__' of exceptions.SyntaxError object>"
p63
ssS'evalue'
p64
S'invalid syntax (index.html, line 3)'
p65
sS'request'
p66
ccopy_reg
_reconstructor
p67
(cgluon.html
BEAUTIFY
p68
c__builtin__
object
p69
NtRp70
(dp71
S'attributes'
p72
(dp73
sS'components'
p74
(lp75
g67
(cgluon.html
TABLE
p76
g69
NtRp77
(dp78
g72
(dp79
S'level'
p80
I5
ssS'parent'
p81
Nsg74
(lp82
g67
(cgluon.html
TR
p83
g69
NtRp84
(dp85
g72
(dp86
sg81
g77
sg74
(lp87
g67
(cgluon.html
TD
p88
g69
NtRp89
(dp90
g72
(dp91
S'_style'
p92
S'font-weight:bold;vertical-align:top'
p93
ssg81
g84
sg74
(lp94
S'ajax'
p95
asbag67
(g88
g69
NtRp96
(dp97
g72
(dp98
S'_valign'
p99
S'top'
p100
ssg81
g84
sg74
(lp101
S':'
asbag67
(g88
g69
NtRp102
(dp103
g72
(dp104
sg81
g84
sg74
(lp105
g67
(g68
g69
NtRp106
(dp107
g72
(dp108
g80
I5
ssg81
g102
sg74
(lp109
S'False'
p110
asbasbasbag67
(g83
g69
NtRp111
(dp112
g72
(dp113
sg81
g77
sg74
(lp114
g67
(g88
g69
NtRp115
(dp116
g72
(dp117
g92
g93
ssg81
g111
sg74
(lp118
S'application'
p119
asbag67
(g88
g69
NtRp120
(dp121
g72
(dp122
g99
g100
ssg81
g111
sg74
(lp123
S':'
asbag67
(g88
g69
NtRp124
(dp125
g72
(dp126
sg81
g111
sg74
(lp127
g67
(g68
g69
NtRp128
(dp129
g72
(dp130
g80
I5
ssg81
g124
sg74
(lp131
S'init'
p132
asbasbasbag67
(g83
g69
NtRp133
(dp134
g72
(dp135
sg81
g77
sg74
(lp136
g67
(g88
g69
NtRp137
(dp138
g72
(dp139
g92
g93
ssg81
g133
sg74
(lp140
g51
asbag67
(g88
g69
NtRp141
(dp142
g72
(dp143
g99
g100
ssg81
g133
sg74
(lp144
S':'
asbag67
(g88
g69
NtRp145
(dp146
g72
(dp147
sg81
g133
sg74
(lp148
g67
(g68
g69
NtRp149
(dp150
g72
(dp151
g80
I5
ssg81
g145
sg74
(lp152
g67
(g76
g69
NtRp153
(dp154
g72
(dp155
g80
I4
ssg81
Nsg74
(lp156
sbasbasbasbag67
(g83
g69
NtRp157
(dp158
g72
(dp159
sg81
g77
sg74
(lp160
g67
(g88
g69
NtRp161
(dp162
g72
(dp163
g92
g93
ssg81
g157
sg74
(lp164
S'body'
p165
asbag67
(g88
g69
NtRp166
(dp167
g72
(dp168
g99
g100
ssg81
g157
sg74
(lp169
S':'
asbag67
(g88
g69
NtRp170
(dp171
g72
(dp172
sg81
g157
sg74
(lp173
g67
(g68
g69
NtRp174
(dp175
g72
(dp176
g80
I5
ssg81
g170
sg74
(lp177
S'<cStringIO.StringO object at 0x2d2b570>'
p178
asbasbasbag67
(g83
g69
NtRp179
(dp180
g72
(dp181
sg81
g77
sg74
(lp182
g67
(g88
g69
NtRp183
(dp184
g72
(dp185
g92
g93
ssg81
g179
sg74
(lp186
S'client'
p187
asbag67
(g88
g69
NtRp188
(dp189
g72
(dp190
g99
g100
ssg81
g179
sg74
(lp191
S':'
asbag67
(g88
g69
NtRp192
(dp193
g72
(dp194
sg81
g179
sg74
(lp195
g67
(g68
g69
NtRp196
(dp197
g72
(dp198
g80
I5
ssg81
g192
sg74
(lp199
S'127.0.0.1'
p200
asbasbasbag67
(g83
g69
NtRp201
(dp202
g72
(dp203
sg81
g77
sg74
(lp204
g67
(g88
g69
NtRp205
(dp206
g72
(dp207
g92
g93
ssg81
g201
sg74
(lp208
S'controller'
p209
asbag67
(g88
g69
NtRp210
(dp211
g72
(dp212
g99
g100
ssg81
g201
sg74
(lp213
S':'
asbag67
(g88
g69
NtRp214
(dp215
g72
(dp216
sg81
g201
sg74
(lp217
g67
(g68
g69
NtRp218
(dp219
g72
(dp220
g80
I5
ssg81
g214
sg74
(lp221
S'default'
p222
asbasbasbag67
(g83
g69
NtRp223
(dp224
g72
(dp225
sg81
g77
sg74
(lp226
g67
(g88
g69
NtRp227
(dp228
g72
(dp229
g92
g93
ssg81
g223
sg74
(lp230
S'cookies'
p231
asbag67
(g88
g69
NtRp232
(dp233
g72
(dp234
g99
g100
ssg81
g223
sg74
(lp235
S':'
asbag67
(g88
g69
NtRp236
(dp237
g72
(dp238
sg81
g223
sg74
(lp239
g67
(g68
g69
NtRp240
(dp241
g72
(dp242
g80
I5
ssg81
g236
sg74
(lp243
g67
(g76
g69
NtRp244
(dp245
g72
(dp246
g80
I4
ssg81
Nsg74
(lp247
g67
(g83
g69
NtRp248
(dp249
g72
(dp250
sg81
g244
sg74
(lp251
g67
(g88
g69
NtRp252
(dp253
g72
(dp254
g92
g93
ssg81
g248
sg74
(lp255
S'session_id_init'
p256
asbag67
(g88
g69
NtRp257
(dp258
g72
(dp259
g99
g100
ssg81
g248
sg74
(lp260
S':'
asbag67
(g88
g69
NtRp261
(dp262
g72
(dp263
sg81
g248
sg74
(lp264
g67
(g68
g69
NtRp265
(dp266
g72
(dp267
g80
I4
ssg81
g261
sg74
(lp268
g67
(g76
g69
NtRp269
(dp270
g72
(dp271
g80
I3
ssg81
Nsg74
(lp272
g67
(g83
g69
NtRp273
(dp274
g72
(dp275
sg81
g269
sg74
(lp276
g67
(g88
g69
NtRp277
(dp278
g72
(dp279
g92
g93
ssg81
g273
sg74
(lp280
S'comment'
p281
asbag67
(g88
g69
NtRp282
(dp283
g72
(dp284
g99
g100
ssg81
g273
sg74
(lp285
S':'
asbag67
(g88
g69
NtRp286
(dp287
g72
(dp288
sg81
g273
sg74
(lp289
g67
(g68
g69
NtRp290
(dp291
g72
(dp292
g80
I3
ssg81
g286
sg74
(lp293
S''
asbasbasbag67
(g83
g69
NtRp294
(dp295
g72
(dp296
sg81
g269
sg74
(lp297
g67
(g88
g69
NtRp298
(dp299
g72
(dp300
g92
g93
ssg81
g294
sg74
(lp301
S'domain'
p302
asbag67
(g88
g69
NtRp303
(dp304
g72
(dp305
g99
g100
ssg81
g294
sg74
(lp306
S':'
asbag67
(g88
g69
NtRp307
(dp308
g72
(dp309
sg81
g294
sg74
(lp310
g67
(g68
g69
NtRp311
(dp312
g72
(dp313
g80
I3
ssg81
g307
sg74
(lp314
S''
asbasbasbag67
(g83
g69
NtRp315
(dp316
g72
(dp317
sg81
g269
sg74
(lp318
g67
(g88
g69
NtRp319
(dp320
g72
(dp321
g92
g93
ssg81
g315
sg74
(lp322
S'expires'
p323
asbag67
(g88
g69
NtRp324
(dp325
g72
(dp326
g99
g100
ssg81
g315
sg74
(lp327
S':'
asbag67
(g88
g69
NtRp328
(dp329
g72
(dp330
sg81
g315
sg74
(lp331
g67
(g68
g69
NtRp332
(dp333
g72
(dp334
g80
I3
ssg81
g328
sg74
(lp335
S''
asbasbasbag67
(g83
g69
NtRp336
(dp337
g72
(dp338
sg81
g269
sg74
(lp339
g67
(g88
g69
NtRp340
(dp341
g72
(dp342
g92
g93
ssg81
g336
sg74
(lp343
S'httponly'
p344
asbag67
(g88
g69
NtRp345
(dp346
g72
(dp347
g99
g100
ssg81
g336
sg74
(lp348
S':'
asbag67
(g88
g69
NtRp349
(dp350
g72
(dp351
sg81
g336
sg74
(lp352
g67
(g68
g69
NtRp353
(dp354
g72
(dp355
g80
I3
ssg81
g349
sg74
(lp356
S''
asbasbasbag67
(g83
g69
NtRp357
(dp358
g72
(dp359
sg81
g269
sg74
(lp360
g67
(g88
g69
NtRp361
(dp362
g72
(dp363
g92
g93
ssg81
g357
sg74
(lp364
S'max-age'
p365
asbag67
(g88
g69
NtRp366
(dp367
g72
(dp368
g99
g100
ssg81
g357
sg74
(lp369
S':'
asbag67
(g88
g69
NtRp370
(dp371
g72
(dp372
sg81
g357
sg74
(lp373
g67
(g68
g69
NtRp374
(dp375
g72
(dp376
g80
I3
ssg81
g370
sg74
(lp377
S''
asbasbasbag67
(g83
g69
NtRp378
(dp379
g72
(dp380
sg81
g269
sg74
(lp381
g67
(g88
g69
NtRp382
(dp383
g72
(dp384
g92
g93
ssg81
g378
sg74
(lp385
S'path'
p386
asbag67
(g88
g69
NtRp387
(dp388
g72
(dp389
g99
g100
ssg81
g378
sg74
(lp390
S':'
asbag67
(g88
g69
NtRp391
(dp392
g72
(dp393
sg81
g378
sg74
(lp394
g67
(g68
g69
NtRp395
(dp396
g72
(dp397
g80
I3
ssg81
g391
sg74
(lp398
S''
asbasbasbag67
(g83
g69
NtRp399
(dp400
g72
(dp401
sg81
g269
sg74
(lp402
g67
(g88
g69
NtRp403
(dp404
g72
(dp405
g92
g93
ssg81
g399
sg74
(lp406
S'secure'
p407
asbag67
(g88
g69
NtRp408
(dp409
g72
(dp410
g99
g100
ssg81
g399
sg74
(lp411
S':'
asbag67
(g88
g69
NtRp412
(dp413
g72
(dp414
sg81
g399
sg74
(lp415
g67
(g68
g69
NtRp416
(dp417
g72
(dp418
g80
I3
ssg81
g412
sg74
(lp419
S''
asbasbasbag67
(g83
g69
NtRp420
(dp421
g72
(dp422
sg81
g269
sg74
(lp423
g67
(g88
g69
NtRp424
(dp425
g72
(dp426
g92
g93
ssg81
g420
sg74
(lp427
S'version'
p428
asbag67
(g88
g69
NtRp429
(dp430
g72
(dp431
g99
g100
ssg81
g420
sg74
(lp432
S':'
asbag67
(g88
g69
NtRp433
(dp434
g72
(dp435
sg81
g420
sg74
(lp436
g67
(g68
g69
NtRp437
(dp438
g72
(dp439
g80
I3
ssg81
g433
sg74
(lp440
S''
asbasbasbasbasbasbasbag67
(g83
g69
NtRp441
(dp442
g72
(dp443
sg81
g244
sg74
(lp444
g67
(g88
g69
NtRp445
(dp446
g72
(dp447
g92
g93
ssg81
g441
sg74
(lp448
S'session_id_movuca'
p449
asbag67
(g88
g69
NtRp450
(dp451
g72
(dp452
g99
g100
ssg81
g441
sg74
(lp453
S':'
asbag67
(g88
g69
NtRp454
(dp455
g72
(dp456
sg81
g441
sg74
(lp457
g67
(g68
g69
NtRp458
(dp459
g72
(dp460
g80
I4
ssg81
g454
sg74
(lp461
g67
(g76
g69
NtRp462
(dp463
g72
(dp464
g80
I3
ssg81
Nsg74
(lp465
g67
(g83
g69
NtRp466
(dp467
g72
(dp468
sg81
g462
sg74
(lp469
g67
(g88
g69
NtRp470
(dp471
g72
(dp472
g92
g93
ssg81
g466
sg74
(lp473
g281
asbag67
(g88
g69
NtRp474
(dp475
g72
(dp476
g99
g100
ssg81
g466
sg74
(lp477
S':'
asbag67
(g88
g69
NtRp478
(dp479
g72
(dp480
sg81
g466
sg74
(lp481
g67
(g68
g69
NtRp482
(dp483
g72
(dp484
g80
I3
ssg81
g478
sg74
(lp485
S''
asbasbasbag67
(g83
g69
NtRp486
(dp487
g72
(dp488
sg81
g462
sg74
(lp489
g67
(g88
g69
NtRp490
(dp491
g72
(dp492
g92
g93
ssg81
g486
sg74
(lp493
g302
asbag67
(g88
g69
NtRp494
(dp495
g72
(dp496
g99
g100
ssg81
g486
sg74
(lp497
S':'
asbag67
(g88
g69
NtRp498
(dp499
g72
(dp500
sg81
g486
sg74
(lp501
g67
(g68
g69
NtRp502
(dp503
g72
(dp504
g80
I3
ssg81
g498
sg74
(lp505
S''
asbasbasbag67
(g83
g69
NtRp506
(dp507
g72
(dp508
sg81
g462
sg74
(lp509
g67
(g88
g69
NtRp510
(dp511
g72
(dp512
g92
g93
ssg81
g506
sg74
(lp513
g323
asbag67
(g88
g69
NtRp514
(dp515
g72
(dp516
g99
g100
ssg81
g506
sg74
(lp517
S':'
asbag67
(g88
g69
NtRp518
(dp519
g72
(dp520
sg81
g506
sg74
(lp521
g67
(g68
g69
NtRp522
(dp523
g72
(dp524
g80
I3
ssg81
g518
sg74
(lp525
S''
asbasbasbag67
(g83
g69
NtRp526
(dp527
g72
(dp528
sg81
g462
sg74
(lp529
g67
(g88
g69
NtRp530
(dp531
g72
(dp532
g92
g93
ssg81
g526
sg74
(lp533
g344
asbag67
(g88
g69
NtRp534
(dp535
g72
(dp536
g99
g100
ssg81
g526
sg74
(lp537
S':'
asbag67
(g88
g69
NtRp538
(dp539
g72
(dp540
sg81
g526
sg74
(lp541
g67
(g68
g69
NtRp542
(dp543
g72
(dp544
g80
I3
ssg81
g538
sg74
(lp545
S''
asbasbasbag67
(g83
g69
NtRp546
(dp547
g72
(dp548
sg81
g462
sg74
(lp549
g67
(g88
g69
NtRp550
(dp551
g72
(dp552
g92
g93
ssg81
g546
sg74
(lp553
g365
asbag67
(g88
g69
NtRp554
(dp555
g72
(dp556
g99
g100
ssg81
g546
sg74
(lp557
S':'
asbag67
(g88
g69
NtRp558
(dp559
g72
(dp560
sg81
g546
sg74
(lp561
g67
(g68
g69
NtRp562
(dp563
g72
(dp564
g80
I3
ssg81
g558
sg74
(lp565
S''
asbasbasbag67
(g83
g69
NtRp566
(dp567
g72
(dp568
sg81
g462
sg74
(lp569
g67
(g88
g69
NtRp570
(dp571
g72
(dp572
g92
g93
ssg81
g566
sg74
(lp573
g386
asbag67
(g88
g69
NtRp574
(dp575
g72
(dp576
g99
g100
ssg81
g566
sg74
(lp577
S':'
asbag67
(g88
g69
NtRp578
(dp579
g72
(dp580
sg81
g566
sg74
(lp581
g67
(g68
g69
NtRp582
(dp583
g72
(dp584
g80
I3
ssg81
g578
sg74
(lp585
S''
asbasbasbag67
(g83
g69
NtRp586
(dp587
g72
(dp588
sg81
g462
sg74
(lp589
g67
(g88
g69
NtRp590
(dp591
g72
(dp592
g92
g93
ssg81
g586
sg74
(lp593
g407
asbag67
(g88
g69
NtRp594
(dp595
g72
(dp596
g99
g100
ssg81
g586
sg74
(lp597
S':'
asbag67
(g88
g69
NtRp598
(dp599
g72
(dp600
sg81
g586
sg74
(lp601
g67
(g68
g69
NtRp602
(dp603
g72
(dp604
g80
I3
ssg81
g598
sg74
(lp605
S''
asbasbasbag67
(g83
g69
NtRp606
(dp607
g72
(dp608
sg81
g462
sg74
(lp609
g67
(g88
g69
NtRp610
(dp611
g72
(dp612
g92
g93
ssg81
g606
sg74
(lp613
g428
asbag67
(g88
g69
NtRp614
(dp615
g72
(dp616
g99
g100
ssg81
g606
sg74
(lp617
S':'
asbag67
(g88
g69
NtRp618
(dp619
g72
(dp620
sg81
g606
sg74
(lp621
g67
(g68
g69
NtRp622
(dp623
g72
(dp624
g80
I3
ssg81
g618
sg74
(lp625
S''
asbasbasbasbasbasbasbag67
(g83
g69
NtRp626
(dp627
g72
(dp628
sg81
g244
sg74
(lp629
g67
(g88
g69
NtRp630
(dp631
g72
(dp632
g92
g93
ssg81
g626
sg74
(lp633
S'session_id_welcome'
p634
asbag67
(g88
g69
NtRp635
(dp636
g72
(dp637
g99
g100
ssg81
g626
sg74
(lp638
S':'
asbag67
(g88
g69
NtRp639
(dp640
g72
(dp641
sg81
g626
sg74
(lp642
g67
(g68
g69
NtRp643
(dp644
g72
(dp645
g80
I4
ssg81
g639
sg74
(lp646
g67
(g76
g69
NtRp647
(dp648
g72
(dp649
g80
I3
ssg81
Nsg74
(lp650
g67
(g83
g69
NtRp651
(dp652
g72
(dp653
sg81
g647
sg74
(lp654
g67
(g88
g69
NtRp655
(dp656
g72
(dp657
g92
g93
ssg81
g651
sg74
(lp658
g281
asbag67
(g88
g69
NtRp659
(dp660
g72
(dp661
g99
g100
ssg81
g651
sg74
(lp662
S':'
asbag67
(g88
g69
NtRp663
(dp664
g72
(dp665
sg81
g651
sg74
(lp666
g67
(g68
g69
NtRp667
(dp668
g72
(dp669
g80
I3
ssg81
g663
sg74
(lp670
S''
asbasbasbag67
(g83
g69
NtRp671
(dp672
g72
(dp673
sg81
g647
sg74
(lp674
g67
(g88
g69
NtRp675
(dp676
g72
(dp677
g92
g93
ssg81
g671
sg74
(lp678
g302
asbag67
(g88
g69
NtRp679
(dp680
g72
(dp681
g99
g100
ssg81
g671
sg74
(lp682
S':'
asbag67
(g88
g69
NtRp683
(dp684
g72
(dp685
sg81
g671
sg74
(lp686
g67
(g68
g69
NtRp687
(dp688
g72
(dp689
g80
I3
ssg81
g683
sg74
(lp690
S''
asbasbasbag67
(g83
g69
NtRp691
(dp692
g72
(dp693
sg81
g647
sg74
(lp694
g67
(g88
g69
NtRp695
(dp696
g72
(dp697
g92
g93
ssg81
g691
sg74
(lp698
g323
asbag67
(g88
g69
NtRp699
(dp700
g72
(dp701
g99
g100
ssg81
g691
sg74
(lp702
S':'
asbag67
(g88
g69
NtRp703
(dp704
g72
(dp705
sg81
g691
sg74
(lp706
g67
(g68
g69
NtRp707
(dp708
g72
(dp709
g80
I3
ssg81
g703
sg74
(lp710
S''
asbasbasbag67
(g83
g69
NtRp711
(dp712
g72
(dp713
sg81
g647
sg74
(lp714
g67
(g88
g69
NtRp715
(dp716
g72
(dp717
g92
g93
ssg81
g711
sg74
(lp718
g344
asbag67
(g88
g69
NtRp719
(dp720
g72
(dp721
g99
g100
ssg81
g711
sg74
(lp722
S':'
asbag67
(g88
g69
NtRp723
(dp724
g72
(dp725
sg81
g711
sg74
(lp726
g67
(g68
g69
NtRp727
(dp728
g72
(dp729
g80
I3
ssg81
g723
sg74
(lp730
S''
asbasbasbag67
(g83
g69
NtRp731
(dp732
g72
(dp733
sg81
g647
sg74
(lp734
g67
(g88
g69
NtRp735
(dp736
g72
(dp737
g92
g93
ssg81
g731
sg74
(lp738
g365
asbag67
(g88
g69
NtRp739
(dp740
g72
(dp741
g99
g100
ssg81
g731
sg74
(lp742
S':'
asbag67
(g88
g69
NtRp743
(dp744
g72
(dp745
sg81
g731
sg74
(lp746
g67
(g68
g69
NtRp747
(dp748
g72
(dp749
g80
I3
ssg81
g743
sg74
(lp750
S''
asbasbasbag67
(g83
g69
NtRp751
(dp752
g72
(dp753
sg81
g647
sg74
(lp754
g67
(g88
g69
NtRp755
(dp756
g72
(dp757
g92
g93
ssg81
g751
sg74
(lp758
g386
asbag67
(g88
g69
NtRp759
(dp760
g72
(dp761
g99
g100
ssg81
g751
sg74
(lp762
S':'
asbag67
(g88
g69
NtRp763
(dp764
g72
(dp765
sg81
g751
sg74
(lp766
g67
(g68
g69
NtRp767
(dp768
g72
(dp769
g80
I3
ssg81
g763
sg74
(lp770
S''
asbasbasbag67
(g83
g69
NtRp771
(dp772
g72
(dp773
sg81
g647
sg74
(lp774
g67
(g88
g69
NtRp775
(dp776
g72
(dp777
g92
g93
ssg81
g771
sg74
(lp778
g407
asbag67
(g88
g69
NtRp779
(dp780
g72
(dp781
g99
g100
ssg81
g771
sg74
(lp782
S':'
asbag67
(g88
g69
NtRp783
(dp784
g72
(dp785
sg81
g771
sg74
(lp786
g67
(g68
g69
NtRp787
(dp788
g72
(dp789
g80
I3
ssg81
g783
sg74
(lp790
S''
asbasbasbag67
(g83
g69
NtRp791
(dp792
g72
(dp793
sg81
g647
sg74
(lp794
g67
(g88
g69
NtRp795
(dp796
g72
(dp797
g92
g93
ssg81
g791
sg74
(lp798
g428
asbag67
(g88
g69
NtRp799
(dp800
g72
(dp801
g99
g100
ssg81
g791
sg74
(lp802
S':'
asbag67
(g88
g69
NtRp803
(dp804
g72
(dp805
sg81
g791
sg74
(lp806
g67
(g68
g69
NtRp807
(dp808
g72
(dp809
g80
I3
ssg81
g803
sg74
(lp810
S''
asbasbasbasbasbasbasbasbasbasbasbag67
(g83
g69
NtRp811
(dp812
g72
(dp813
sg81
g77
sg74
(lp814
g67
(g88
g69
NtRp815
(dp816
g72
(dp817
g92
g93
ssg81
g811
sg74
(lp818
S'env'
p819
asbag67
(g88
g69
NtRp820
(dp821
g72
(dp822
g99
g100
ssg81
g811
sg74
(lp823
S':'
asbag67
(g88
g69
NtRp824
(dp825
g72
(dp826
sg81
g811
sg74
(lp827
g67
(g68
g69
NtRp828
(dp829
g72
(dp830
g80
I5
ssg81
g824
sg74
(lp831
g67
(g76
g69
NtRp832
(dp833
g72
(dp834
g80
I4
ssg81
Nsg74
(lp835
g67
(g83
g69
NtRp836
(dp837
g72
(dp838
sg81
g832
sg74
(lp839
g67
(g88
g69
NtRp840
(dp841
g72
(dp842
g92
g93
ssg81
g836
sg74
(lp843
S'app_folders'
p844
asbag67
(g88
g69
NtRp845
(dp846
g72
(dp847
g99
g100
ssg81
g836
sg74
(lp848
S':'
asbag67
(g88
g69
NtRp849
(dp850
g72
(dp851
sg81
g836
sg74
(lp852
g67
(g68
g69
NtRp853
(dp854
g72
(dp855
g80
I4
ssg81
g849
sg74
(lp856
S"set(['/home/bruce/projects/web2py/applications/welcome/', '/home/bruce/projects/web2py/applications/init/', '/home/bruce/projects/web2py/applications/movuca/', '/home/bruce/projects/web2py/applications/admin/'])"
p857
asbasbasbag67
(g83
g69
NtRp858
(dp859
g72
(dp860
sg81
g832
sg74
(lp861
g67
(g88
g69
NtRp862
(dp863
g72
(dp864
g92
g93
ssg81
g858
sg74
(lp865
S'applications_parent'
p866
asbag67
(g88
g69
NtRp867
(dp868
g72
(dp869
g99
g100
ssg81
g858
sg74
(lp870
S':'
asbag67
(g88
g69
NtRp871
(dp872
g72
(dp873
sg81
g858
sg74
(lp874
g67
(g68
g69
NtRp875
(dp876
g72
(dp877
g80
I4
ssg81
g871
sg74
(lp878
S'/home/bruce/projects/web2py'
p879
asbasbasbag67
(g83
g69
NtRp880
(dp881
g72
(dp882
sg81
g832
sg74
(lp883
g67
(g88
g69
NtRp884
(dp885
g72
(dp886
g92
g93
ssg81
g880
sg74
(lp887
S'cmd_args'
p888
asbag67
(g88
g69
NtRp889
(dp890
g72
(dp891
g99
g100
ssg81
g880
sg74
(lp892
S':'
asbag67
(g88
g69
NtRp893
(dp894
g72
(dp895
sg81
g880
sg74
(lp896
g67
(g68
g69
NtRp897
(dp898
g72
(dp899
g80
I4
ssg81
g893
sg74
(lp900
g67
(g76
g69
NtRp901
(dp902
g72
(dp903
g80
I3
ssg81
Nsg74
(lp904
sbasbasbasbag67
(g83
g69
NtRp905
(dp906
g72
(dp907
sg81
g832
sg74
(lp908
g67
(g88
g69
NtRp909
(dp910
g72
(dp911
g92
g93
ssg81
g905
sg74
(lp912
S'cmd_options'
p913
asbag67
(g88
g69
NtRp914
(dp915
g72
(dp916
g99
g100
ssg81
g905
sg74
(lp917
S':'
asbag67
(g88
g69
NtRp918
(dp919
g72
(dp920
sg81
g905
sg74
(lp921
g67
(g68
g69
NtRp922
(dp923
g72
(dp924
g80
I4
ssg81
g918
sg74
(lp925
S"<Values at 0x240ec20: {'verbose': False, 'ip': '127.0.0.1', 'shutdown_timeout': 5, 'taskbar': False, 'nocron': False, 'pid_filename': 'httpserver.pid', 'maxthreads': None, 'softcron': False, 'server_name': 'vaiubuntu', 'bpython': False, 'nogui': False, 'port': 8000, 'extcron': False, 'debuglevel': 30, 'test': None, 'folder': '/home/bruce/projects/web2py', 'config': '', 'import_models': False, 'winservice': '', 'shell': None, 'run': '', 'log_filename': 'httpserver.log', 'args': [''], 'socket_timeout': 60, 'ssl_ca_certificate': None, 'scheduler': None, 'profiler_filename': None, 'ssl_private_key': '', 'password': '1234', 'request_queue_size': 5, 'ssl_certificate': '', 'cronjob': False, 'numthreads': None, 'quiet': False, 'interfaces': None, 'minthreads': None, 'timeout': 10, 'plain': False, 'nobanner': False}>"
p926
asbasbasbag67
(g83
g69
NtRp927
(dp928
g72
(dp929
sg81
g832
sg74
(lp930
g67
(g88
g69
NtRp931
(dp932
g72
(dp933
g92
g93
ssg81
g927
sg74
(lp934
S'db_sessions'
p935
asbag67
(g88
g69
NtRp936
(dp937
g72
(dp938
g99
g100
ssg81
g927
sg74
(lp939
S':'
asbag67
(g88
g69
NtRp940
(dp941
g72
(dp942
sg81
g927
sg74
(lp943
g67
(g68
g69
NtRp944
(dp945
g72
(dp946
g80
I4
ssg81
g940
sg74
(lp947
S'set([])'
p948
asbasbasbag67
(g83
g69
NtRp949
(dp950
g72
(dp951
sg81
g832
sg74
(lp952
g67
(g88
g69
NtRp953
(dp954
g72
(dp955
g92
g93
ssg81
g949
sg74
(lp956
S'debugging'
p957
asbag67
(g88
g69
NtRp958
(dp959
g72
(dp960
g99
g100
ssg81
g949
sg74
(lp961
S':'
asbag67
(g88
g69
NtRp962
(dp963
g72
(dp964
sg81
g949
sg74
(lp965
g67
(g68
g69
NtRp966
(dp967
g72
(dp968
g80
I4
ssg81
g962
sg74
(lp969
g110
asbasbasbag67
(g83
g69
NtRp970
(dp971
g72
(dp972
sg81
g832
sg74
(lp973
g67
(g88
g69
NtRp974
(dp975
g72
(dp976
g92
g93
ssg81
g970
sg74
(lp977
S'gluon_parent'
p978
asbag67
(g88
g69
NtRp979
(dp980
g72
(dp981
g99
g100
ssg81
g970
sg74
(lp982
S':'
asbag67
(g88
g69
NtRp983
(dp984
g72
(dp985
sg81
g970
sg74
(lp986
g67
(g68
g69
NtRp987
(dp988
g72
(dp989
g80
I4
ssg81
g983
sg74
(lp990
S'/home/bruce/projects/web2py'
p991
asbasbasbag67
(g83
g69
NtRp992
(dp993
g72
(dp994
sg81
g832
sg74
(lp995
g67
(g88
g69
NtRp996
(dp997
g72
(dp998
g92
g93
ssg81
g992
sg74
(lp999
S'http_accept'
p1000
asbag67
(g88
g69
NtRp1001
(dp1002
g72
(dp1003
g99
g100
ssg81
g992
sg74
(lp1004
S':'
asbag67
(g88
g69
NtRp1005
(dp1006
g72
(dp1007
sg81
g992
sg74
(lp1008
g67
(g68
g69
NtRp1009
(dp1010
g72
(dp1011
g80
I4
ssg81
g1005
sg74
(lp1012
S'text/html,application/xhtml+xml,application/xml;q=0.9,*/*;q=0.8'
p1013
asbasbasbag67
(g83
g69
NtRp1014
(dp1015
g72
(dp1016
sg81
g832
sg74
(lp1017
g67
(g88
g69
NtRp1018
(dp1019
g72
(dp1020
g92
g93
ssg81
g1014
sg74
(lp1021
S'http_accept_charset'
p1022
asbag67
(g88
g69
NtRp1023
(dp1024
g72
(dp1025
g99
g100
ssg81
g1014
sg74
(lp1026
S':'
asbag67
(g88
g69
NtRp1027
(dp1028
g72
(dp1029
sg81
g1014
sg74
(lp1030
g67
(g68
g69
NtRp1031
(dp1032
g72
(dp1033
g80
I4
ssg81
g1027
sg74
(lp1034
S'ISO-8859-1,utf-8;q=0.7,*;q=0.7'
p1035
asbasbasbag67
(g83
g69
NtRp1036
(dp1037
g72
(dp1038
sg81
g832
sg74
(lp1039
g67
(g88
g69
NtRp1040
(dp1041
g72
(dp1042
g92
g93
ssg81
g1036
sg74
(lp1043
S'http_accept_encoding'
p1044
asbag67
(g88
g69
NtRp1045
(dp1046
g72
(dp1047
g99
g100
ssg81
g1036
sg74
(lp1048
S':'
asbag67
(g88
g69
NtRp1049
(dp1050
g72
(dp1051
sg81
g1036
sg74
(lp1052
g67
(g68
g69
NtRp1053
(dp1054
g72
(dp1055
g80
I4
ssg81
g1049
sg74
(lp1056
S'gzip, deflate'
p1057
asbasbasbag67
(g83
g69
NtRp1058
(dp1059
g72
(dp1060
sg81
g832
sg74
(lp1061
g67
(g88
g69
NtRp1062
(dp1063
g72
(dp1064
g92
g93
ssg81
g1058
sg74
(lp1065
S'http_accept_language'
p1066
asbag67
(g88
g69
NtRp1067
(dp1068
g72
(dp1069
g99
g100
ssg81
g1058
sg74
(lp1070
S':'
asbag67
(g88
g69
NtRp1071
(dp1072
g72
(dp1073
sg81
g1058
sg74
(lp1074
g67
(g68
g69
NtRp1075
(dp1076
g72
(dp1077
g80
I4
ssg81
g1071
sg74
(lp1078
S'en-us,en;q=0.5'
p1079
asbasbasbag67
(g83
g69
NtRp1080
(dp1081
g72
(dp1082
sg81
g832
sg74
(lp1083
g67
(g88
g69
NtRp1084
(dp1085
g72
(dp1086
g92
g93
ssg81
g1080
sg74
(lp1087
S'http_cache_control'
p1088
asbag67
(g88
g69
NtRp1089
(dp1090
g72
(dp1091
g99
g100
ssg81
g1080
sg74
(lp1092
S':'
asbag67
(g88
g69
NtRp1093
(dp1094
g72
(dp1095
sg81
g1080
sg74
(lp1096
g67
(g68
g69
NtRp1097
(dp1098
g72
(dp1099
g80
I4
ssg81
g1093
sg74
(lp1100
S'max-age=0'
p1101
asbasbasbag67
(g83
g69
NtRp1102
(dp1103
g72
(dp1104
sg81
g832
sg74
(lp1105
g67
(g88
g69
NtRp1106
(dp1107
g72
(dp1108
g92
g93
ssg81
g1102
sg74
(lp1109
S'http_connection'
p1110
asbag67
(g88
g69
NtRp1111
(dp1112
g72
(dp1113
g99
g100
ssg81
g1102
sg74
(lp1114
S':'
asbag67
(g88
g69
NtRp1115
(dp1116
g72
(dp1117
sg81
g1102
sg74
(lp1118
g67
(g68
g69
NtRp1119
(dp1120
g72
(dp1121
g80
I4
ssg81
g1115
sg74
(lp1122
S'keep-alive'
p1123
asbasbasbag67
(g83
g69
NtRp1124
(dp1125
g72
(dp1126
sg81
g832
sg74
(lp1127
g67
(g88
g69
NtRp1128
(dp1129
g72
(dp1130
g92
g93
ssg81
g1124
sg74
(lp1131
S'http_cookie'
p1132
asbag67
(g88
g69
NtRp1133
(dp1134
g72
(dp1135
g99
g100
ssg81
g1124
sg74
(lp1136
S':'
asbag67
(g88
g69
NtRp1137
(dp1138
g72
(dp1139
sg81
g1124
sg74
(lp1140
g67
(g68
g69
NtRp1141
(dp1142
g72
(dp1143
g80
I4
ssg81
g1137
sg74
(lp1144
S'__utma=111872281.1553298651.1320690030.1323735106.1323817222.3; __utmz=111872281.1320690030.1.1.utmcsr=(direct)|utmccn=(direct)|utmcmd=(none); session_id_init=127.0.0.1-e6ff5279-08ae-40cb-94ee-a8d2a94298b7; session_id_welcome=127.0.0.1-5123301f-c8b4-4bc2-90cf-e3f8ca15b0ed; session_id_movuca=127.0.0.1-32a0e20e-8bcf-4b39-b138-a6867593777e'
p1145
asbasbasbag67
(g83
g69
NtRp1146
(dp1147
g72
(dp1148
sg81
g832
sg74
(lp1149
g67
(g88
g69
NtRp1150
(dp1151
g72
(dp1152
g92
g93
ssg81
g1146
sg74
(lp1153
S'http_host'
p1154
asbag67
(g88
g69
NtRp1155
(dp1156
g72
(dp1157
g99
g100
ssg81
g1146
sg74
(lp1158
S':'
asbag67
(g88
g69
NtRp1159
(dp1160
g72
(dp1161
sg81
g1146
sg74
(lp1162
g67
(g68
g69
NtRp1163
(dp1164
g72
(dp1165
g80
I4
ssg81
g1159
sg74
(lp1166
S'localhost:8000'
p1167
asbasbasbag67
(g83
g69
NtRp1168
(dp1169
g72
(dp1170
sg81
g832
sg74
(lp1171
g67
(g88
g69
NtRp1172
(dp1173
g72
(dp1174
g92
g93
ssg81
g1168
sg74
(lp1175
S'http_user_agent'
p1176
asbag67
(g88
g69
NtRp1177
(dp1178
g72
(dp1179
g99
g100
ssg81
g1168
sg74
(lp1180
S':'
asbag67
(g88
g69
NtRp1181
(dp1182
g72
(dp1183
sg81
g1168
sg74
(lp1184
g67
(g68
g69
NtRp1185
(dp1186
g72
(dp1187
g80
I4
ssg81
g1181
sg74
(lp1188
S'Mozilla/5.0 (Ubuntu; X11; Linux x86_64; rv:9.0.1) Gecko/20100101 Firefox/9.0.1'
p1189
asbasbasbag67
(g83
g69
NtRp1190
(dp1191
g72
(dp1192
sg81
g832
sg74
(lp1193
g67
(g88
g69
NtRp1194
(dp1195
g72
(dp1196
g92
g93
ssg81
g1190
sg74
(lp1197
S'is_jython'
p1198
asbag67
(g88
g69
NtRp1199
(dp1200
g72
(dp1201
g99
g100
ssg81
g1190
sg74
(lp1202
S':'
asbag67
(g88
g69
NtRp1203
(dp1204
g72
(dp1205
sg81
g1190
sg74
(lp1206
g67
(g68
g69
NtRp1207
(dp1208
g72
(dp1209
g80
I4
ssg81
g1203
sg74
(lp1210
g110
asbasbasbag67
(g83
g69
NtRp1211
(dp1212
g72
(dp1213
sg81
g832
sg74
(lp1214
g67
(g88
g69
NtRp1215
(dp1216
g72
(dp1217
g92
g93
ssg81
g1211
sg74
(lp1218
S'is_pypy'
p1219
asbag67
(g88
g69
NtRp1220
(dp1221
g72
(dp1222
g99
g100
ssg81
g1211
sg74
(lp1223
S':'
asbag67
(g88
g69
NtRp1224
(dp1225
g72
(dp1226
sg81
g1211
sg74
(lp1227
g67
(g68
g69
NtRp1228
(dp1229
g72
(dp1230
g80
I4
ssg81
g1224
sg74
(lp1231
g110
asbasbasbag67
(g83
g69
NtRp1232
(dp1233
g72
(dp1234
sg81
g832
sg74
(lp1235
g67
(g88
g69
NtRp1236
(dp1237
g72
(dp1238
g92
g93
ssg81
g1232
sg74
(lp1239
S'path_info'
p1240
asbag67
(g88
g69
NtRp1241
(dp1242
g72
(dp1243
g99
g100
ssg81
g1232
sg74
(lp1244
S':'
asbag67
(g88
g69
NtRp1245
(dp1246
g72
(dp1247
sg81
g1232
sg74
(lp1248
g67
(g68
g69
NtRp1249
(dp1250
g72
(dp1251
g80
I4
ssg81
g1245
sg74
(lp1252
S'/'
asbasbasbag67
(g83
g69
NtRp1253
(dp1254
g72
(dp1255
sg81
g832
sg74
(lp1256
g67
(g88
g69
NtRp1257
(dp1258
g72
(dp1259
g92
g93
ssg81
g1253
sg74
(lp1260
S'query_string'
p1261
asbag67
(g88
g69
NtRp1262
(dp1263
g72
(dp1264
g99
g100
ssg81
g1253
sg74
(lp1265
S':'
asbag67
(g88
g69
NtRp1266
(dp1267
g72
(dp1268
sg81
g1253
sg74
(lp1269
g67
(g68
g69
NtRp1270
(dp1271
g72
(dp1272
g80
I4
ssg81
g1266
sg74
(lp1273
S''
asbasbasbag67
(g83
g69
NtRp1274
(dp1275
g72
(dp1276
sg81
g832
sg74
(lp1277
g67
(g88
g69
NtRp1278
(dp1279
g72
(dp1280
g92
g93
ssg81
g1274
sg74
(lp1281
S'remote_addr'
p1282
asbag67
(g88
g69
NtRp1283
(dp1284
g72
(dp1285
g99
g100
ssg81
g1274
sg74
(lp1286
S':'
asbag67
(g88
g69
NtRp1287
(dp1288
g72
(dp1289
sg81
g1274
sg74
(lp1290
g67
(g68
g69
NtRp1291
(dp1292
g72
(dp1293
g80
I4
ssg81
g1287
sg74
(lp1294
g200
asbasbasbag67
(g83
g69
NtRp1295
(dp1296
g72
(dp1297
sg81
g832
sg74
(lp1298
g67
(g88
g69
NtRp1299
(dp1300
g72
(dp1301
g92
g93
ssg81
g1295
sg74
(lp1302
S'remote_port'
p1303
asbag67
(g88
g69
NtRp1304
(dp1305
g72
(dp1306
g99
g100
ssg81
g1295
sg74
(lp1307
S':'
asbag67
(g88
g69
NtRp1308
(dp1309
g72
(dp1310
sg81
g1295
sg74
(lp1311
g67
(g68
g69
NtRp1312
(dp1313
g72
(dp1314
g80
I4
ssg81
g1308
sg74
(lp1315
S'58253'
p1316
asbasbasbag67
(g83
g69
NtRp1317
(dp1318
g72
(dp1319
sg81
g832
sg74
(lp1320
g67
(g88
g69
NtRp1321
(dp1322
g72
(dp1323
g92
g93
ssg81
g1317
sg74
(lp1324
S'request_method'
p1325
asbag67
(g88
g69
NtRp1326
(dp1327
g72
(dp1328
g99
g100
ssg81
g1317
sg74
(lp1329
S':'
asbag67
(g88
g69
NtRp1330
(dp1331
g72
(dp1332
sg81
g1317
sg74
(lp1333
g67
(g68
g69
NtRp1334
(dp1335
g72
(dp1336
g80
I4
ssg81
g1330
sg74
(lp1337
S'GET'
p1338
asbasbasbag67
(g83
g69
NtRp1339
(dp1340
g72
(dp1341
sg81
g832
sg74
(lp1342
g67
(g88
g69
NtRp1343
(dp1344
g72
(dp1345
g92
g93
ssg81
g1339
sg74
(lp1346
S'script_name'
p1347
asbag67
(g88
g69
NtRp1348
(dp1349
g72
(dp1350
g99
g100
ssg81
g1339
sg74
(lp1351
S':'
asbag67
(g88
g69
NtRp1352
(dp1353
g72
(dp1354
sg81
g1339
sg74
(lp1355
g67
(g68
g69
NtRp1356
(dp1357
g72
(dp1358
g80
I4
ssg81
g1352
sg74
(lp1359
S''
asbasbasbag67
(g83
g69
NtRp1360
(dp1361
g72
(dp1362
sg81
g832
sg74
(lp1363
g67
(g88
g69
NtRp1364
(dp1365
g72
(dp1366
g92
g93
ssg81
g1360
sg74
(lp1367
S'server_name'
p1368
asbag67
(g88
g69
NtRp1369
(dp1370
g72
(dp1371
g99
g100
ssg81
g1360
sg74
(lp1372
S':'
asbag67
(g88
g69
NtRp1373
(dp1374
g72
(dp1375
sg81
g1360
sg74
(lp1376
g67
(g68
g69
NtRp1377
(dp1378
g72
(dp1379
g80
I4
ssg81
g1373
sg74
(lp1380
S'vaiubuntu'
p1381
asbasbasbag67
(g83
g69
NtRp1382
(dp1383
g72
(dp1384
sg81
g832
sg74
(lp1385
g67
(g88
g69
NtRp1386
(dp1387
g72
(dp1388
g92
g93
ssg81
g1382
sg74
(lp1389
S'server_port'
p1390
asbag67
(g88
g69
NtRp1391
(dp1392
g72
(dp1393
g99
g100
ssg81
g1382
sg74
(lp1394
S':'
asbag67
(g88
g69
NtRp1395
(dp1396
g72
(dp1397
sg81
g1382
sg74
(lp1398
g67
(g68
g69
NtRp1399
(dp1400
g72
(dp1401
g80
I4
ssg81
g1395
sg74
(lp1402
S'8000'
p1403
asbasbasbag67
(g83
g69
NtRp1404
(dp1405
g72
(dp1406
sg81
g832
sg74
(lp1407
g67
(g88
g69
NtRp1408
(dp1409
g72
(dp1410
g92
g93
ssg81
g1404
sg74
(lp1411
S'server_protocol'
p1412
asbag67
(g88
g69
NtRp1413
(dp1414
g72
(dp1415
g99
g100
ssg81
g1404
sg74
(lp1416
S':'
asbag67
(g88
g69
NtRp1417
(dp1418
g72
(dp1419
sg81
g1404
sg74
(lp1420
g67
(g68
g69
NtRp1421
(dp1422
g72
(dp1423
g80
I4
ssg81
g1417
sg74
(lp1424
S'HTTP/1.1'
p1425
asbasbasbag67
(g83
g69
NtRp1426
(dp1427
g72
(dp1428
sg81
g832
sg74
(lp1429
g67
(g88
g69
NtRp1430
(dp1431
g72
(dp1432
g92
g93
ssg81
g1426
sg74
(lp1433
S'server_software'
p1434
asbag67
(g88
g69
NtRp1435
(dp1436
g72
(dp1437
g99
g100
ssg81
g1426
sg74
(lp1438
S':'
asbag67
(g88
g69
NtRp1439
(dp1440
g72
(dp1441
sg81
g1426
sg74
(lp1442
g67
(g68
g69
NtRp1443
(dp1444
g72
(dp1445
g80
I4
ssg81
g1439
sg74
(lp1446
S'Rocket 1.2.4'
p1447
asbasbasbag67
(g83
g69
NtRp1448
(dp1449
g72
(dp1450
sg81
g832
sg74
(lp1451
g67
(g88
g69
NtRp1452
(dp1453
g72
(dp1454
g92
g93
ssg81
g1448
sg74
(lp1455
S'web2py_crontype'
p1456
asbag67
(g88
g69
NtRp1457
(dp1458
g72
(dp1459
g99
g100
ssg81
g1448
sg74
(lp1460
S':'
asbag67
(g88
g69
NtRp1461
(dp1462
g72
(dp1463
sg81
g1448
sg74
(lp1464
g67
(g68
g69
NtRp1465
(dp1466
g72
(dp1467
g80
I4
ssg81
g1461
sg74
(lp1468
S'hard'
p1469
asbasbasbag67
(g83
g69
NtRp1470
(dp1471
g72
(dp1472
sg81
g832
sg74
(lp1473
g67
(g88
g69
NtRp1474
(dp1475
g72
(dp1476
g92
g93
ssg81
g1470
sg74
(lp1477
S'web2py_path'
p1478
asbag67
(g88
g69
NtRp1479
(dp1480
g72
(dp1481
g99
g100
ssg81
g1470
sg74
(lp1482
S':'
asbag67
(g88
g69
NtRp1483
(dp1484
g72
(dp1485
sg81
g1470
sg74
(lp1486
g67
(g68
g69
NtRp1487
(dp1488
g72
(dp1489
g80
I4
ssg81
g1483
sg74
(lp1490
g879
asbasbasbag67
(g83
g69
NtRp1491
(dp1492
g72
(dp1493
sg81
g832
sg74
(lp1494
g67
(g88
g69
NtRp1495
(dp1496
g72
(dp1497
g92
g93
ssg81
g1491
sg74
(lp1498
S'web2py_version'
p1499
asbag67
(g88
g69
NtRp1500
(dp1501
g72
(dp1502
g99
g100
ssg81
g1491
sg74
(lp1503
S':'
asbag67
(g88
g69
NtRp1504
(dp1505
g72
(dp1506
sg81
g1491
sg74
(lp1507
g67
(g68
g69
NtRp1508
(dp1509
g72
(dp1510
g80
I4
ssg81
g1504
sg74
(lp1511
g67
(g76
g69
NtRp1512
(dp1513
g72
(dp1514
g80
I3
ssg81
Nsg74
(lp1515
g67
(g83
g69
NtRp1516
(dp1517
g72
(dp1518
sg81
g1512
sg74
(lp1519
g67
(g88
g69
NtRp1520
(dp1521
g72
(dp1522
sg81
g1516
sg74
(lp1523
g67
(g68
g69
NtRp1524
(dp1525
g72
(dp1526
g80
I3
ssg81
g1520
sg74
(lp1527
S'1'
asbasbasbag67
(g83
g69
NtRp1528
(dp1529
g72
(dp1530
sg81
g1512
sg74
(lp1531
g67
(g88
g69
NtRp1532
(dp1533
g72
(dp1534
sg81
g1528
sg74
(lp1535
g67
(g68
g69
NtRp1536
(dp1537
g72
(dp1538
g80
I3
ssg81
g1532
sg74
(lp1539
S'99'
p1540
asbasbasbag67
(g83
g69
NtRp1541
(dp1542
g72
(dp1543
sg81
g1512
sg74
(lp1544
g67
(g88
g69
NtRp1545
(dp1546
g72
(dp1547
sg81
g1541
sg74
(lp1548
g67
(g68
g69
NtRp1549
(dp1550
g72
(dp1551
g80
I3
ssg81
g1545
sg74
(lp1552
S'4'
asbasbasbag67
(g83
g69
NtRp1553
(dp1554
g72
(dp1555
sg81
g1512
sg74
(lp1556
g67
(g88
g69
NtRp1557
(dp1558
g72
(dp1559
sg81
g1553
sg74
(lp1560
g67
(g68
g69
NtRp1561
(dp1562
g72
(dp1563
g80
I3
ssg81
g1557
sg74
(lp1564
S'datetime.datetime(2011, 12, 31, 14, 37, 1)'
p1565
asbasbasbag67
(g83
g69
NtRp1566
(dp1567
g72
(dp1568
sg81
g1512
sg74
(lp1569
g67
(g88
g69
NtRp1570
(dp1571
g72
(dp1572
sg81
g1566
sg74
(lp1573
g67
(g68
g69
NtRp1574
(dp1575
g72
(dp1576
g80
I3
ssg81
g1570
sg74
(lp1577
S'stable'
p1578
asbasbasbasbasbasbasbag67
(g83
g69
NtRp1579
(dp1580
g72
(dp1581
sg81
g832
sg74
(lp1582
g67
(g88
g69
NtRp1583
(dp1584
g72
(dp1585
g92
g93
ssg81
g1579
sg74
(lp1586
S'wsgi_errors'
p1587
asbag67
(g88
g69
NtRp1588
(dp1589
g72
(dp1590
g99
g100
ssg81
g1579
sg74
(lp1591
S':'
asbag67
(g88
g69
NtRp1592
(dp1593
g72
(dp1594
sg81
g1579
sg74
(lp1595
g67
(g68
g69
NtRp1596
(dp1597
g72
(dp1598
g80
I4
ssg81
g1592
sg74
(lp1599
S"<open file '<stderr>', mode 'w' at 0x7ff90a3ce270>"
p1600
asbasbasbag67
(g83
g69
NtRp1601
(dp1602
g72
(dp1603
sg81
g832
sg74
(lp1604
g67
(g88
g69
NtRp1605
(dp1606
g72
(dp1607
g92
g93
ssg81
g1601
sg74
(lp1608
S'wsgi_file_wrapper'
p1609
asbag67
(g88
g69
NtRp1610
(dp1611
g72
(dp1612
g99
g100
ssg81
g1601
sg74
(lp1613
S':'
asbag67
(g88
g69
NtRp1614
(dp1615
g72
(dp1616
sg81
g1601
sg74
(lp1617
g67
(g68
g69
NtRp1618
(dp1619
g72
(dp1620
g80
I4
ssg81
g1614
sg74
(lp1621
S'<class wsgiref.util.FileWrapper at 0x22e3a78>'
p1622
asbasbasbag67
(g83
g69
NtRp1623
(dp1624
g72
(dp1625
sg81
g832
sg74
(lp1626
g67
(g88
g69
NtRp1627
(dp1628
g72
(dp1629
g92
g93
ssg81
g1623
sg74
(lp1630
S'wsgi_input'
p1631
asbag67
(g88
g69
NtRp1632
(dp1633
g72
(dp1634
g99
g100
ssg81
g1623
sg74
(lp1635
S':'
asbag67
(g88
g69
NtRp1636
(dp1637
g72
(dp1638
sg81
g1623
sg74
(lp1639
g67
(g68
g69
NtRp1640
(dp1641
g72
(dp1642
g80
I4
ssg81
g1636
sg74
(lp1643
S'<socket._fileobject object at 0x3d83250>'
p1644
asbasbasbag67
(g83
g69
NtRp1645
(dp1646
g72
(dp1647
sg81
g832
sg74
(lp1648
g67
(g88
g69
NtRp1649
(dp1650
g72
(dp1651
g92
g93
ssg81
g1645
sg74
(lp1652
S'wsgi_multiprocess'
p1653
asbag67
(g88
g69
NtRp1654
(dp1655
g72
(dp1656
g99
g100
ssg81
g1645
sg74
(lp1657
S':'
asbag67
(g88
g69
NtRp1658
(dp1659
g72
(dp1660
sg81
g1645
sg74
(lp1661
g67
(g68
g69
NtRp1662
(dp1663
g72
(dp1664
g80
I4
ssg81
g1658
sg74
(lp1665
g110
asbasbasbag67
(g83
g69
NtRp1666
(dp1667
g72
(dp1668
sg81
g832
sg74
(lp1669
g67
(g88
g69
NtRp1670
(dp1671
g72
(dp1672
g92
g93
ssg81
g1666
sg74
(lp1673
S'wsgi_multithread'
p1674
asbag67
(g88
g69
NtRp1675
(dp1676
g72
(dp1677
g99
g100
ssg81
g1666
sg74
(lp1678
S':'
asbag67
(g88
g69
NtRp1679
(dp1680
g72
(dp1681
sg81
g1666
sg74
(lp1682
g67
(g68
g69
NtRp1683
(dp1684
g72
(dp1685
g80
I4
ssg81
g1679
sg74
(lp1686
S'True'
p1687
asbasbasbag67
(g83
g69
NtRp1688
(dp1689
g72
(dp1690
sg81
g832
sg74
(lp1691
g67
(g88
g69
NtRp1692
(dp1693
g72
(dp1694
g92
g93
ssg81
g1688
sg74
(lp1695
S'wsgi_run_once'
p1696
asbag67
(g88
g69
NtRp1697
(dp1698
g72
(dp1699
g99
g100
ssg81
g1688
sg74
(lp1700
S':'
asbag67
(g88
g69
NtRp1701
(dp1702
g72
(dp1703
sg81
g1688
sg74
(lp1704
g67
(g68
g69
NtRp1705
(dp1706
g72
(dp1707
g80
I4
ssg81
g1701
sg74
(lp1708
g110
asbasbasbag67
(g83
g69
NtRp1709
(dp1710
g72
(dp1711
sg81
g832
sg74
(lp1712
g67
(g88
g69
NtRp1713
(dp1714
g72
(dp1715
g92
g93
ssg81
g1709
sg74
(lp1716
S'wsgi_url_scheme'
p1717
asbag67
(g88
g69
NtRp1718
(dp1719
g72
(dp1720
g99
g100
ssg81
g1709
sg74
(lp1721
S':'
asbag67
(g88
g69
NtRp1722
(dp1723
g72
(dp1724
sg81
g1709
sg74
(lp1725
g67
(g68
g69
NtRp1726
(dp1727
g72
(dp1728
g80
I4
ssg81
g1722
sg74
(lp1729
S'http'
p1730
asbasbasbag67
(g83
g69
NtRp1731
(dp1732
g72
(dp1733
sg81
g832
sg74
(lp1734
g67
(g88
g69
NtRp1735
(dp1736
g72
(dp1737
g92
g93
ssg81
g1731
sg74
(lp1738
S'wsgi_version'
p1739
asbag67
(g88
g69
NtRp1740
(dp1741
g72
(dp1742
g99
g100
ssg81
g1731
sg74
(lp1743
S':'
asbag67
(g88
g69
NtRp1744
(dp1745
g72
(dp1746
sg81
g1731
sg74
(lp1747
g67
(g68
g69
NtRp1748
(dp1749
g72
(dp1750
g80
I4
ssg81
g1744
sg74
(lp1751
g67
(g76
g69
NtRp1752
(dp1753
g72
(dp1754
g80
I3
ssg81
Nsg74
(lp1755
g67
(g83
g69
NtRp1756
(dp1757
g72
(dp1758
sg81
g1752
sg74
(lp1759
g67
(g88
g69
NtRp1760
(dp1761
g72
(dp1762
sg81
g1756
sg74
(lp1763
g67
(g68
g69
NtRp1764
(dp1765
g72
(dp1766
g80
I3
ssg81
g1760
sg74
(lp1767
S'1'
asbasbasbag67
(g83
g69
NtRp1768
(dp1769
g72
(dp1770
sg81
g1752
sg74
(lp1771
g67
(g88
g69
NtRp1772
(dp1773
g72
(dp1774
sg81
g1768
sg74
(lp1775
g67
(g68
g69
NtRp1776
(dp1777
g72
(dp1778
g80
I3
ssg81
g1772
sg74
(lp1779
S'0'
asbasbasbasbasbasbasbasbasbasbasbag67
(g83
g69
NtRp1780
(dp1781
g72
(dp1782
sg81
g77
sg74
(lp1783
g67
(g88
g69
NtRp1784
(dp1785
g72
(dp1786
g92
g93
ssg81
g1780
sg74
(lp1787
S'extension'
p1788
asbag67
(g88
g69
NtRp1789
(dp1790
g72
(dp1791
g99
g100
ssg81
g1780
sg74
(lp1792
S':'
asbag67
(g88
g69
NtRp1793
(dp1794
g72
(dp1795
sg81
g1780
sg74
(lp1796
g67
(g68
g69
NtRp1797
(dp1798
g72
(dp1799
g80
I5
ssg81
g1793
sg74
(lp1800
S'html'
p1801
asbasbasbag67
(g83
g69
NtRp1802
(dp1803
g72
(dp1804
sg81
g77
sg74
(lp1805
g67
(g88
g69
NtRp1806
(dp1807
g72
(dp1808
g92
g93
ssg81
g1802
sg74
(lp1809
S'folder'
p1810
asbag67
(g88
g69
NtRp1811
(dp1812
g72
(dp1813
g99
g100
ssg81
g1802
sg74
(lp1814
S':'
asbag67
(g88
g69
NtRp1815
(dp1816
g72
(dp1817
sg81
g1802
sg74
(lp1818
g67
(g68
g69
NtRp1819
(dp1820
g72
(dp1821
g80
I5
ssg81
g1815
sg74
(lp1822
S'/home/bruce/projects/web2py/applications/init/'
p1823
asbasbasbag67
(g83
g69
NtRp1824
(dp1825
g72
(dp1826
sg81
g77
sg74
(lp1827
g67
(g88
g69
NtRp1828
(dp1829
g72
(dp1830
g92
g93
ssg81
g1824
sg74
(lp1831
S'function'
p1832
asbag67
(g88
g69
NtRp1833
(dp1834
g72
(dp1835
g99
g100
ssg81
g1824
sg74
(lp1836
S':'
asbag67
(g88
g69
NtRp1837
(dp1838
g72
(dp1839
sg81
g1824
sg74
(lp1840
g67
(g68
g69
NtRp1841
(dp1842
g72
(dp1843
g80
I5
ssg81
g1837
sg74
(lp1844
S'index'
p1845
asbasbasbag67
(g83
g69
NtRp1846
(dp1847
g72
(dp1848
sg81
g77
sg74
(lp1849
g67
(g88
g69
NtRp1850
(dp1851
g72
(dp1852
g92
g93
ssg81
g1846
sg74
(lp1853
S'get_vars'
p1854
asbag67
(g88
g69
NtRp1855
(dp1856
g72
(dp1857
g99
g100
ssg81
g1846
sg74
(lp1858
S':'
asbag67
(g88
g69
NtRp1859
(dp1860
g72
(dp1861
sg81
g1846
sg74
(lp1862
g67
(g68
g69
NtRp1863
(dp1864
g72
(dp1865
g80
I5
ssg81
g1859
sg74
(lp1866
g67
(g76
g69
NtRp1867
(dp1868
g72
(dp1869
g80
I4
ssg81
Nsg74
(lp1870
sbasbasbasbag67
(g83
g69
NtRp1871
(dp1872
g72
(dp1873
sg81
g77
sg74
(lp1874
g67
(g88
g69
NtRp1875
(dp1876
g72
(dp1877
g92
g93
ssg81
g1871
sg74
(lp1878
S'global_settings'
p1879
asbag67
(g88
g69
NtRp1880
(dp1881
g72
(dp1882
g99
g100
ssg81
g1871
sg74
(lp1883
S':'
asbag67
(g88
g69
NtRp1884
(dp1885
g72
(dp1886
sg81
g1871
sg74
(lp1887
g67
(g68
g69
NtRp1888
(dp1889
g72
(dp1890
g80
I5
ssg81
g1884
sg74
(lp1891
g67
(g76
g69
NtRp1892
(dp1893
g72
(dp1894
g80
I4
ssg81
Nsg74
(lp1895
g67
(g83
g69
NtRp1896
(dp1897
g72
(dp1898
sg81
g1892
sg74
(lp1899
g67
(g88
g69
NtRp1900
(dp1901
g72
(dp1902
g92
g93
ssg81
g1896
sg74
(lp1903
g844
asbag67
(g88
g69
NtRp1904
(dp1905
g72
(dp1906
g99
g100
ssg81
g1896
sg74
(lp1907
S':'
asbag67
(g88
g69
NtRp1908
(dp1909
g72
(dp1910
sg81
g1896
sg74
(lp1911
g67
(g68
g69
NtRp1912
(dp1913
g72
(dp1914
g80
I4
ssg81
g1908
sg74
(lp1915
S"set(['/home/bruce/projects/web2py/applications/welcome/', '/home/bruce/projects/web2py/applications/init/', '/home/bruce/projects/web2py/applications/movuca/', '/home/bruce/projects/web2py/applications/admin/'])"
p1916
asbasbasbag67
(g83
g69
NtRp1917
(dp1918
g72
(dp1919
sg81
g1892
sg74
(lp1920
g67
(g88
g69
NtRp1921
(dp1922
g72
(dp1923
g92
g93
ssg81
g1917
sg74
(lp1924
g866
asbag67
(g88
g69
NtRp1925
(dp1926
g72
(dp1927
g99
g100
ssg81
g1917
sg74
(lp1928
S':'
asbag67
(g88
g69
NtRp1929
(dp1930
g72
(dp1931
sg81
g1917
sg74
(lp1932
g67
(g68
g69
NtRp1933
(dp1934
g72
(dp1935
g80
I4
ssg81
g1929
sg74
(lp1936
g879
asbasbasbag67
(g83
g69
NtRp1937
(dp1938
g72
(dp1939
sg81
g1892
sg74
(lp1940
g67
(g88
g69
NtRp1941
(dp1942
g72
(dp1943
g92
g93
ssg81
g1937
sg74
(lp1944
g888
asbag67
(g88
g69
NtRp1945
(dp1946
g72
(dp1947
g99
g100
ssg81
g1937
sg74
(lp1948
S':'
asbag67
(g88
g69
NtRp1949
(dp1950
g72
(dp1951
sg81
g1937
sg74
(lp1952
g67
(g68
g69
NtRp1953
(dp1954
g72
(dp1955
g80
I4
ssg81
g1949
sg74
(lp1956
g67
(g76
g69
NtRp1957
(dp1958
g72
(dp1959
g80
I3
ssg81
Nsg74
(lp1960
sbasbasbasbag67
(g83
g69
NtRp1961
(dp1962
g72
(dp1963
sg81
g1892
sg74
(lp1964
g67
(g88
g69
NtRp1965
(dp1966
g72
(dp1967
g92
g93
ssg81
g1961
sg74
(lp1968
g913
asbag67
(g88
g69
NtRp1969
(dp1970
g72
(dp1971
g99
g100
ssg81
g1961
sg74
(lp1972
S':'
asbag67
(g88
g69
NtRp1973
(dp1974
g72
(dp1975
sg81
g1961
sg74
(lp1976
g67
(g68
g69
NtRp1977
(dp1978
g72
(dp1979
g80
I4
ssg81
g1973
sg74
(lp1980
S"<Values at 0x240ec20: {'verbose': False, 'ip': '127.0.0.1', 'shutdown_timeout': 5, 'taskbar': False, 'nocron': False, 'pid_filename': 'httpserver.pid', 'maxthreads': None, 'softcron': False, 'server_name': 'vaiubuntu', 'bpython': False, 'nogui': False, 'port': 8000, 'extcron': False, 'debuglevel': 30, 'test': None, 'folder': '/home/bruce/projects/web2py', 'config': '', 'import_models': False, 'winservice': '', 'shell': None, 'run': '', 'log_filename': 'httpserver.log', 'args': [''], 'socket_timeout': 60, 'ssl_ca_certificate': None, 'scheduler': None, 'profiler_filename': None, 'ssl_private_key': '', 'password': '1234', 'request_queue_size': 5, 'ssl_certificate': '', 'cronjob': False, 'numthreads': None, 'quiet': False, 'interfaces': None, 'minthreads': None, 'timeout': 10, 'plain': False, 'nobanner': False}>"
p1981
asbasbasbag67
(g83
g69
NtRp1982
(dp1983
g72
(dp1984
sg81
g1892
sg74
(lp1985
g67
(g88
g69
NtRp1986
(dp1987
g72
(dp1988
g92
g93
ssg81
g1982
sg74
(lp1989
g935
asbag67
(g88
g69
NtRp1990
(dp1991
g72
(dp1992
g99
g100
ssg81
g1982
sg74
(lp1993
S':'
asbag67
(g88
g69
NtRp1994
(dp1995
g72
(dp1996
sg81
g1982
sg74
(lp1997
g67
(g68
g69
NtRp1998
(dp1999
g72
(dp2000
g80
I4
ssg81
g1994
sg74
(lp2001
S'set([])'
p2002
asbasbasbag67
(g83
g69
NtRp2003
(dp2004
g72
(dp2005
sg81
g1892
sg74
(lp2006
g67
(g88
g69
NtRp2007
(dp2008
g72
(dp2009
g92
g93
ssg81
g2003
sg74
(lp2010
g957
asbag67
(g88
g69
NtRp2011
(dp2012
g72
(dp2013
g99
g100
ssg81
g2003
sg74
(lp2014
S':'
asbag67
(g88
g69
NtRp2015
(dp2016
g72
(dp2017
sg81
g2003
sg74
(lp2018
g67
(g68
g69
NtRp2019
(dp2020
g72
(dp2021
g80
I4
ssg81
g2015
sg74
(lp2022
g110
asbasbasbag67
(g83
g69
NtRp2023
(dp2024
g72
(dp2025
sg81
g1892
sg74
(lp2026
g67
(g88
g69
NtRp2027
(dp2028
g72
(dp2029
g92
g93
ssg81
g2023
sg74
(lp2030
g978
asbag67
(g88
g69
NtRp2031
(dp2032
g72
(dp2033
g99
g100
ssg81
g2023
sg74
(lp2034
S':'
asbag67
(g88
g69
NtRp2035
(dp2036
g72
(dp2037
sg81
g2023
sg74
(lp2038
g67
(g68
g69
NtRp2039
(dp2040
g72
(dp2041
g80
I4
ssg81
g2035
sg74
(lp2042
g991
asbasbasbag67
(g83
g69
NtRp2043
(dp2044
g72
(dp2045
sg81
g1892
sg74
(lp2046
g67
(g88
g69
NtRp2047
(dp2048
g72
(dp2049
g92
g93
ssg81
g2043
sg74
(lp2050
g1198
asbag67
(g88
g69
NtRp2051
(dp2052
g72
(dp2053
g99
g100
ssg81
g2043
sg74
(lp2054
S':'
asbag67
(g88
g69
NtRp2055
(dp2056
g72
(dp2057
sg81
g2043
sg74
(lp2058
g67
(g68
g69
NtRp2059
(dp2060
g72
(dp2061
g80
I4
ssg81
g2055
sg74
(lp2062
g110
asbasbasbag67
(g83
g69
NtRp2063
(dp2064
g72
(dp2065
sg81
g1892
sg74
(lp2066
g67
(g88
g69
NtRp2067
(dp2068
g72
(dp2069
g92
g93
ssg81
g2063
sg74
(lp2070
g1219
asbag67
(g88
g69
NtRp2071
(dp2072
g72
(dp2073
g99
g100
ssg81
g2063
sg74
(lp2074
S':'
asbag67
(g88
g69
NtRp2075
(dp2076
g72
(dp2077
sg81
g2063
sg74
(lp2078
g67
(g68
g69
NtRp2079
(dp2080
g72
(dp2081
g80
I4
ssg81
g2075
sg74
(lp2082
g110
asbasbasbag67
(g83
g69
NtRp2083
(dp2084
g72
(dp2085
sg81
g1892
sg74
(lp2086
g67
(g88
g69
NtRp2087
(dp2088
g72
(dp2089
g92
g93
ssg81
g2083
sg74
(lp2090
g1456
asbag67
(g88
g69
NtRp2091
(dp2092
g72
(dp2093
g99
g100
ssg81
g2083
sg74
(lp2094
S':'
asbag67
(g88
g69
NtRp2095
(dp2096
g72
(dp2097
sg81
g2083
sg74
(lp2098
g67
(g68
g69
NtRp2099
(dp2100
g72
(dp2101
g80
I4
ssg81
g2095
sg74
(lp2102
g1469
asbasbasbag67
(g83
g69
NtRp2103
(dp2104
g72
(dp2105
sg81
g1892
sg74
(lp2106
g67
(g88
g69
NtRp2107
(dp2108
g72
(dp2109
g92
g93
ssg81
g2103
sg74
(lp2110
g1499
asbag67
(g88
g69
NtRp2111
(dp2112
g72
(dp2113
g99
g100
ssg81
g2103
sg74
(lp2114
S':'
asbag67
(g88
g69
NtRp2115
(dp2116
g72
(dp2117
sg81
g2103
sg74
(lp2118
g67
(g68
g69
NtRp2119
(dp2120
g72
(dp2121
g80
I4
ssg81
g2115
sg74
(lp2122
g67
(g76
g69
NtRp2123
(dp2124
g72
(dp2125
g80
I3
ssg81
Nsg74
(lp2126
g67
(g83
g69
NtRp2127
(dp2128
g72
(dp2129
sg81
g2123
sg74
(lp2130
g67
(g88
g69
NtRp2131
(dp2132
g72
(dp2133
sg81
g2127
sg74
(lp2134
g67
(g68
g69
NtRp2135
(dp2136
g72
(dp2137
g80
I3
ssg81
g2131
sg74
(lp2138
S'1'
asbasbasbag67
(g83
g69
NtRp2139
(dp2140
g72
(dp2141
sg81
g2123
sg74
(lp2142
g67
(g88
g69
NtRp2143
(dp2144
g72
(dp2145
sg81
g2139
sg74
(lp2146
g67
(g68
g69
NtRp2147
(dp2148
g72
(dp2149
g80
I3
ssg81
g2143
sg74
(lp2150
S'99'
p2151
asbasbasbag67
(g83
g69
NtRp2152
(dp2153
g72
(dp2154
sg81
g2123
sg74
(lp2155
g67
(g88
g69
NtRp2156
(dp2157
g72
(dp2158
sg81
g2152
sg74
(lp2159
g67
(g68
g69
NtRp2160
(dp2161
g72
(dp2162
g80
I3
ssg81
g2156
sg74
(lp2163
S'4'
asbasbasbag67
(g83
g69
NtRp2164
(dp2165
g72
(dp2166
sg81
g2123
sg74
(lp2167
g67
(g88
g69
NtRp2168
(dp2169
g72
(dp2170
sg81
g2164
sg74
(lp2171
g67
(g68
g69
NtRp2172
(dp2173
g72
(dp2174
g80
I3
ssg81
g2168
sg74
(lp2175
S'datetime.datetime(2011, 12, 31, 14, 37, 1)'
p2176
asbasbasbag67
(g83
g69
NtRp2177
(dp2178
g72
(dp2179
sg81
g2123
sg74
(lp2180
g67
(g88
g69
NtRp2181
(dp2182
g72
(dp2183
sg81
g2177
sg74
(lp2184
g67
(g68
g69
NtRp2185
(dp2186
g72
(dp2187
g80
I3
ssg81
g2181
sg74
(lp2188
g1578
asbasbasbasbasbasbasbasbasbasbasbag67
(g83
g69
NtRp2189
(dp2190
g72
(dp2191
sg81
g77
sg74
(lp2192
g67
(g88
g69
NtRp2193
(dp2194
g72
(dp2195
g92
g93
ssg81
g2189
sg74
(lp2196
S'is_https'
p2197
asbag67
(g88
g69
NtRp2198
(dp2199
g72
(dp2200
g99
g100
ssg81
g2189
sg74
(lp2201
S':'
asbag67
(g88
g69
NtRp2202
(dp2203
g72
(dp2204
sg81
g2189
sg74
(lp2205
g67
(g68
g69
NtRp2206
(dp2207
g72
(dp2208
g80
I5
ssg81
g2202
sg74
(lp2209
g110
asbasbasbag67
(g83
g69
NtRp2210
(dp2211
g72
(dp2212
sg81
g77
sg74
(lp2213
g67
(g88
g69
NtRp2214
(dp2215
g72
(dp2216
g92
g93
ssg81
g2210
sg74
(lp2217
S'is_local'
p2218
asbag67
(g88
g69
NtRp2219
(dp2220
g72
(dp2221
g99
g100
ssg81
g2210
sg74
(lp2222
S':'
asbag67
(g88
g69
NtRp2223
(dp2224
g72
(dp2225
sg81
g2210
sg74
(lp2226
g67
(g68
g69
NtRp2227
(dp2228
g72
(dp2229
g80
I5
ssg81
g2223
sg74
(lp2230
g1687
asbasbasbag67
(g83
g69
NtRp2231
(dp2232
g72
(dp2233
sg81
g77
sg74
(lp2234
g67
(g88
g69
NtRp2235
(dp2236
g72
(dp2237
g92
g93
ssg81
g2231
sg74
(lp2238
S'is_restful'
p2239
asbag67
(g88
g69
NtRp2240
(dp2241
g72
(dp2242
g99
g100
ssg81
g2231
sg74
(lp2243
S':'
asbag67
(g88
g69
NtRp2244
(dp2245
g72
(dp2246
sg81
g2231
sg74
(lp2247
g67
(g68
g69
NtRp2248
(dp2249
g72
(dp2250
g80
I5
ssg81
g2244
sg74
(lp2251
g110
asbasbasbag67
(g83
g69
NtRp2252
(dp2253
g72
(dp2254
sg81
g77
sg74
(lp2255
g67
(g88
g69
NtRp2256
(dp2257
g72
(dp2258
g92
g93
ssg81
g2252
sg74
(lp2259
S'now'
p2260
asbag67
(g88
g69
NtRp2261
(dp2262
g72
(dp2263
g99
g100
ssg81
g2252
sg74
(lp2264
S':'
asbag67
(g88
g69
NtRp2265
(dp2266
g72
(dp2267
sg81
g2252
sg74
(lp2268
g67
(g68
g69
NtRp2269
(dp2270
g72
(dp2271
g80
I5
ssg81
g2265
sg74
(lp2272
S'datetime.datetime(2012, 1, 8, 21, 29, 43, 567924)'
p2273
asbasbasbag67
(g83
g69
NtRp2274
(dp2275
g72
(dp2276
sg81
g77
sg74
(lp2277
g67
(g88
g69
NtRp2278
(dp2279
g72
(dp2280
g92
g93
ssg81
g2274
sg74
(lp2281
S'post_vars'
p2282
asbag67
(g88
g69
NtRp2283
(dp2284
g72
(dp2285
g99
g100
ssg81
g2274
sg74
(lp2286
S':'
asbag67
(g88
g69
NtRp2287
(dp2288
g72
(dp2289
sg81
g2274
sg74
(lp2290
g67
(g68
g69
NtRp2291
(dp2292
g72
(dp2293
g80
I5
ssg81
g2287
sg74
(lp2294
g67
(g76
g69
NtRp2295
(dp2296
g72
(dp2297
g80
I4
ssg81
Nsg74
(lp2298
sbasbasbasbag67
(g83
g69
NtRp2299
(dp2300
g72
(dp2301
sg81
g77
sg74
(lp2302
g67
(g88
g69
NtRp2303
(dp2304
g72
(dp2305
g92
g93
ssg81
g2299
sg74
(lp2306
S'url'
p2307
asbag67
(g88
g69
NtRp2308
(dp2309
g72
(dp2310
g99
g100
ssg81
g2299
sg74
(lp2311
S':'
asbag67
(g88
g69
NtRp2312
(dp2313
g72
(dp2314
sg81
g2299
sg74
(lp2315
g67
(g68
g69
NtRp2316
(dp2317
g72
(dp2318
g80
I5
ssg81
g2312
sg74
(lp2319
S'/init/default/index'
p2320
asbasbasbag67
(g83
g69
NtRp2321
(dp2322
g72
(dp2323
sg81
g77
sg74
(lp2324
g67
(g88
g69
NtRp2325
(dp2326
g72
(dp2327
g92
g93
ssg81
g2321
sg74
(lp2328
S'utcnow'
p2329
asbag67
(g88
g69
NtRp2330
(dp2331
g72
(dp2332
g99
g100
ssg81
g2321
sg74
(lp2333
S':'
asbag67
(g88
g69
NtRp2334
(dp2335
g72
(dp2336
sg81
g2321
sg74
(lp2337
g67
(g68
g69
NtRp2338
(dp2339
g72
(dp2340
g80
I5
ssg81
g2334
sg74
(lp2341
S'datetime.datetime(2012, 1, 8, 23, 29, 43, 567947)'
p2342
asbasbasbag67
(g83
g69
NtRp2343
(dp2344
g72
(dp2345
sg81
g77
sg74
(lp2346
g67
(g88
g69
NtRp2347
(dp2348
g72
(dp2349
g92
g93
ssg81
g2343
sg74
(lp2350
S'uuid'
p2351
asbag67
(g88
g69
NtRp2352
(dp2353
g72
(dp2354
g99
g100
ssg81
g2343
sg74
(lp2355
S':'
asbag67
(g88
g69
NtRp2356
(dp2357
g72
(dp2358
sg81
g2343
sg74
(lp2359
g67
(g68
g69
NtRp2360
(dp2361
g72
(dp2362
g80
I5
ssg81
g2356
sg74
(lp2363
S'init/127.0.0.1.2012-01-08.21-29-43.e5e21289-ea99-48a0-a6e7-f9d4598b471f'
p2364
asbasbasbag67
(g83
g69
NtRp2365
(dp2366
g72
(dp2367
sg81
g77
sg74
(lp2368
g67
(g88
g69
NtRp2369
(dp2370
g72
(dp2371
g92
g93
ssg81
g2365
sg74
(lp2372
S'vars'
p2373
asbag67
(g88
g69
NtRp2374
(dp2375
g72
(dp2376
g99
g100
ssg81
g2365
sg74
(lp2377
S':'
asbag67
(g88
g69
NtRp2378
(dp2379
g72
(dp2380
sg81
g2365
sg74
(lp2381
g67
(g68
g69
NtRp2382
(dp2383
g72
(dp2384
g80
I5
ssg81
g2378
sg74
(lp2385
g67
(g76
g69
NtRp2386
(dp2387
g72
(dp2388
g80
I4
ssg81
Nsg74
(lp2389
sbasbasbasbag67
(g83
g69
NtRp2390
(dp2391
g72
(dp2392
sg81
g77
sg74
(lp2393
g67
(g88
g69
NtRp2394
(dp2395
g72
(dp2396
g92
g93
ssg81
g2390
sg74
(lp2397
S'wsgi'
p2398
asbag67
(g88
g69
NtRp2399
(dp2400
g72
(dp2401
g99
g100
ssg81
g2390
sg74
(lp2402
S':'
asbag67
(g88
g69
NtRp2403
(dp2404
g72
(dp2405
sg81
g2390
sg74
(lp2406
g67
(g68
g69
NtRp2407
(dp2408
g72
(dp2409
g80
I5
ssg81
g2403
sg74
(lp2410
g67
(g76
g69
NtRp2411
(dp2412
g72
(dp2413
g80
I4
ssg81
Nsg74
(lp2414
g67
(g83
g69
NtRp2415
(dp2416
g72
(dp2417
sg81
g2411
sg74
(lp2418
g67
(g88
g69
NtRp2419
(dp2420
g72
(dp2421
g92
g93
ssg81
g2415
sg74
(lp2422
S'environ'
p2423
asbag67
(g88
g69
NtRp2424
(dp2425
g72
(dp2426
g99
g100
ssg81
g2415
sg74
(lp2427
S':'
asbag67
(g88
g69
NtRp2428
(dp2429
g72
(dp2430
sg81
g2415
sg74
(lp2431
g67
(g68
g69
NtRp2432
(dp2433
g72
(dp2434
g80
I4
ssg81
g2428
sg74
(lp2435
g67
(g76
g69
NtRp2436
(dp2437
g72
(dp2438
g80
I3
ssg81
Nsg74
(lp2439
g67
(g83
g69
NtRp2440
(dp2441
g72
(dp2442
sg81
g2436
sg74
(lp2443
g67
(g88
g69
NtRp2444
(dp2445
g72
(dp2446
g92
g93
ssg81
g2440
sg74
(lp2447
S'HTTP_ACCEPT'
p2448
asbag67
(g88
g69
NtRp2449
(dp2450
g72
(dp2451
g99
g100
ssg81
g2440
sg74
(lp2452
S':'
asbag67
(g88
g69
NtRp2453
(dp2454
g72
(dp2455
sg81
g2440
sg74
(lp2456
g67
(g68
g69
NtRp2457
(dp2458
g72
(dp2459
g80
I3
ssg81
g2453
sg74
(lp2460
g1013
asbasbasbag67
(g83
g69
NtRp2461
(dp2462
g72
(dp2463
sg81
g2436
sg74
(lp2464
g67
(g88
g69
NtRp2465
(dp2466
g72
(dp2467
g92
g93
ssg81
g2461
sg74
(lp2468
S'HTTP_ACCEPT_CHARSET'
p2469
asbag67
(g88
g69
NtRp2470
(dp2471
g72
(dp2472
g99
g100
ssg81
g2461
sg74
(lp2473
S':'
asbag67
(g88
g69
NtRp2474
(dp2475
g72
(dp2476
sg81
g2461
sg74
(lp2477
g67
(g68
g69
NtRp2478
(dp2479
g72
(dp2480
g80
I3
ssg81
g2474
sg74
(lp2481
g1035
asbasbasbag67
(g83
g69
NtRp2482
(dp2483
g72
(dp2484
sg81
g2436
sg74
(lp2485
g67
(g88
g69
NtRp2486
(dp2487
g72
(dp2488
g92
g93
ssg81
g2482
sg74
(lp2489
S'HTTP_ACCEPT_ENCODING'
p2490
asbag67
(g88
g69
NtRp2491
(dp2492
g72
(dp2493
g99
g100
ssg81
g2482
sg74
(lp2494
S':'
asbag67
(g88
g69
NtRp2495
(dp2496
g72
(dp2497
sg81
g2482
sg74
(lp2498
g67
(g68
g69
NtRp2499
(dp2500
g72
(dp2501
g80
I3
ssg81
g2495
sg74
(lp2502
g1057
asbasbasbag67
(g83
g69
NtRp2503
(dp2504
g72
(dp2505
sg81
g2436
sg74
(lp2506
g67
(g88
g69
NtRp2507
(dp2508
g72
(dp2509
g92
g93
ssg81
g2503
sg74
(lp2510
S'HTTP_ACCEPT_LANGUAGE'
p2511
asbag67
(g88
g69
NtRp2512
(dp2513
g72
(dp2514
g99
g100
ssg81
g2503
sg74
(lp2515
S':'
asbag67
(g88
g69
NtRp2516
(dp2517
g72
(dp2518
sg81
g2503
sg74
(lp2519
g67
(g68
g69
NtRp2520
(dp2521
g72
(dp2522
g80
I3
ssg81
g2516
sg74
(lp2523
g1079
asbasbasbag67
(g83
g69
NtRp2524
(dp2525
g72
(dp2526
sg81
g2436
sg74
(lp2527
g67
(g88
g69
NtRp2528
(dp2529
g72
(dp2530
g92
g93
ssg81
g2524
sg74
(lp2531
S'HTTP_CACHE_CONTROL'
p2532
asbag67
(g88
g69
NtRp2533
(dp2534
g72
(dp2535
g99
g100
ssg81
g2524
sg74
(lp2536
S':'
asbag67
(g88
g69
NtRp2537
(dp2538
g72
(dp2539
sg81
g2524
sg74
(lp2540
g67
(g68
g69
NtRp2541
(dp2542
g72
(dp2543
g80
I3
ssg81
g2537
sg74
(lp2544
g1101
asbasbasbag67
(g83
g69
NtRp2545
(dp2546
g72
(dp2547
sg81
g2436
sg74
(lp2548
g67
(g88
g69
NtRp2549
(dp2550
g72
(dp2551
g92
g93
ssg81
g2545
sg74
(lp2552
S'HTTP_CONNECTION'
p2553
asbag67
(g88
g69
NtRp2554
(dp2555
g72
(dp2556
g99
g100
ssg81
g2545
sg74
(lp2557
S':'
asbag67
(g88
g69
NtRp2558
(dp2559
g72
(dp2560
sg81
g2545
sg74
(lp2561
g67
(g68
g69
NtRp2562
(dp2563
g72
(dp2564
g80
I3
ssg81
g2558
sg74
(lp2565
g1123
asbasbasbag67
(g83
g69
NtRp2566
(dp2567
g72
(dp2568
sg81
g2436
sg74
(lp2569
g67
(g88
g69
NtRp2570
(dp2571
g72
(dp2572
g92
g93
ssg81
g2566
sg74
(lp2573
S'HTTP_COOKIE'
p2574
asbag67
(g88
g69
NtRp2575
(dp2576
g72
(dp2577
g99
g100
ssg81
g2566
sg74
(lp2578
S':'
asbag67
(g88
g69
NtRp2579
(dp2580
g72
(dp2581
sg81
g2566
sg74
(lp2582
g67
(g68
g69
NtRp2583
(dp2584
g72
(dp2585
g80
I3
ssg81
g2579
sg74
(lp2586
g1145
asbasbasbag67
(g83
g69
NtRp2587
(dp2588
g72
(dp2589
sg81
g2436
sg74
(lp2590
g67
(g88
g69
NtRp2591
(dp2592
g72
(dp2593
g92
g93
ssg81
g2587
sg74
(lp2594
S'HTTP_HOST'
p2595
asbag67
(g88
g69
NtRp2596
(dp2597
g72
(dp2598
g99
g100
ssg81
g2587
sg74
(lp2599
S':'
asbag67
(g88
g69
NtRp2600
(dp2601
g72
(dp2602
sg81
g2587
sg74
(lp2603
g67
(g68
g69
NtRp2604
(dp2605
g72
(dp2606
g80
I3
ssg81
g2600
sg74
(lp2607
g1167
asbasbasbag67
(g83
g69
NtRp2608
(dp2609
g72
(dp2610
sg81
g2436
sg74
(lp2611
g67
(g88
g69
NtRp2612
(dp2613
g72
(dp2614
g92
g93
ssg81
g2608
sg74
(lp2615
S'HTTP_USER_AGENT'
p2616
asbag67
(g88
g69
NtRp2617
(dp2618
g72
(dp2619
g99
g100
ssg81
g2608
sg74
(lp2620
S':'
asbag67
(g88
g69
NtRp2621
(dp2622
g72
(dp2623
sg81
g2608
sg74
(lp2624
g67
(g68
g69
NtRp2625
(dp2626
g72
(dp2627
g80
I3
ssg81
g2621
sg74
(lp2628
g1189
asbasbasbag67
(g83
g69
NtRp2629
(dp2630
g72
(dp2631
sg81
g2436
sg74
(lp2632
g67
(g88
g69
NtRp2633
(dp2634
g72
(dp2635
g92
g93
ssg81
g2629
sg74
(lp2636
S'PATH_INFO'
p2637
asbag67
(g88
g69
NtRp2638
(dp2639
g72
(dp2640
g99
g100
ssg81
g2629
sg74
(lp2641
S':'
asbag67
(g88
g69
NtRp2642
(dp2643
g72
(dp2644
sg81
g2629
sg74
(lp2645
g67
(g68
g69
NtRp2646
(dp2647
g72
(dp2648
g80
I3
ssg81
g2642
sg74
(lp2649
S'/'
asbasbasbag67
(g83
g69
NtRp2650
(dp2651
g72
(dp2652
sg81
g2436
sg74
(lp2653
g67
(g88
g69
NtRp2654
(dp2655
g72
(dp2656
g92
g93
ssg81
g2650
sg74
(lp2657
S'QUERY_STRING'
p2658
asbag67
(g88
g69
NtRp2659
(dp2660
g72
(dp2661
g99
g100
ssg81
g2650
sg74
(lp2662
S':'
asbag67
(g88
g69
NtRp2663
(dp2664
g72
(dp2665
sg81
g2650
sg74
(lp2666
g67
(g68
g69
NtRp2667
(dp2668
g72
(dp2669
g80
I3
ssg81
g2663
sg74
(lp2670
S''
asbasbasbag67
(g83
g69
NtRp2671
(dp2672
g72
(dp2673
sg81
g2436
sg74
(lp2674
g67
(g88
g69
NtRp2675
(dp2676
g72
(dp2677
g92
g93
ssg81
g2671
sg74
(lp2678
S'REMOTE_ADDR'
p2679
asbag67
(g88
g69
NtRp2680
(dp2681
g72
(dp2682
g99
g100
ssg81
g2671
sg74
(lp2683
S':'
asbag67
(g88
g69
NtRp2684
(dp2685
g72
(dp2686
sg81
g2671
sg74
(lp2687
g67
(g68
g69
NtRp2688
(dp2689
g72
(dp2690
g80
I3
ssg81
g2684
sg74
(lp2691
g200
asbasbasbag67
(g83
g69
NtRp2692
(dp2693
g72
(dp2694
sg81
g2436
sg74
(lp2695
g67
(g88
g69
NtRp2696
(dp2697
g72
(dp2698
g92
g93
ssg81
g2692
sg74
(lp2699
S'REMOTE_PORT'
p2700
asbag67
(g88
g69
NtRp2701
(dp2702
g72
(dp2703
g99
g100
ssg81
g2692
sg74
(lp2704
S':'
asbag67
(g88
g69
NtRp2705
(dp2706
g72
(dp2707
sg81
g2692
sg74
(lp2708
g67
(g68
g69
NtRp2709
(dp2710
g72
(dp2711
g80
I3
ssg81
g2705
sg74
(lp2712
g1316
asbasbasbag67
(g83
g69
NtRp2713
(dp2714
g72
(dp2715
sg81
g2436
sg74
(lp2716
g67
(g88
g69
NtRp2717
(dp2718
g72
(dp2719
g92
g93
ssg81
g2713
sg74
(lp2720
S'REQUEST_METHOD'
p2721
asbag67
(g88
g69
NtRp2722
(dp2723
g72
(dp2724
g99
g100
ssg81
g2713
sg74
(lp2725
S':'
asbag67
(g88
g69
NtRp2726
(dp2727
g72
(dp2728
sg81
g2713
sg74
(lp2729
g67
(g68
g69
NtRp2730
(dp2731
g72
(dp2732
g80
I3
ssg81
g2726
sg74
(lp2733
g1338
asbasbasbag67
(g83
g69
NtRp2734
(dp2735
g72
(dp2736
sg81
g2436
sg74
(lp2737
g67
(g88
g69
NtRp2738
(dp2739
g72
(dp2740
g92
g93
ssg81
g2734
sg74
(lp2741
S'SCRIPT_NAME'
p2742
asbag67
(g88
g69
NtRp2743
(dp2744
g72
(dp2745
g99
g100
ssg81
g2734
sg74
(lp2746
S':'
asbag67
(g88
g69
NtRp2747
(dp2748
g72
(dp2749
sg81
g2734
sg74
(lp2750
g67
(g68
g69
NtRp2751
(dp2752
g72
(dp2753
g80
I3
ssg81
g2747
sg74
(lp2754
S''
asbasbasbag67
(g83
g69
NtRp2755
(dp2756
g72
(dp2757
sg81
g2436
sg74
(lp2758
g67
(g88
g69
NtRp2759
(dp2760
g72
(dp2761
g92
g93
ssg81
g2755
sg74
(lp2762
S'SERVER_NAME'
p2763
asbag67
(g88
g69
NtRp2764
(dp2765
g72
(dp2766
g99
g100
ssg81
g2755
sg74
(lp2767
S':'
asbag67
(g88
g69
NtRp2768
(dp2769
g72
(dp2770
sg81
g2755
sg74
(lp2771
g67
(g68
g69
NtRp2772
(dp2773
g72
(dp2774
g80
I3
ssg81
g2768
sg74
(lp2775
g1381
asbasbasbag67
(g83
g69
NtRp2776
(dp2777
g72
(dp2778
sg81
g2436
sg74
(lp2779
g67
(g88
g69
NtRp2780
(dp2781
g72
(dp2782
g92
g93
ssg81
g2776
sg74
(lp2783
S'SERVER_PORT'
p2784
asbag67
(g88
g69
NtRp2785
(dp2786
g72
(dp2787
g99
g100
ssg81
g2776
sg74
(lp2788
S':'
asbag67
(g88
g69
NtRp2789
(dp2790
g72
(dp2791
sg81
g2776
sg74
(lp2792
g67
(g68
g69
NtRp2793
(dp2794
g72
(dp2795
g80
I3
ssg81
g2789
sg74
(lp2796
g1403
asbasbasbag67
(g83
g69
NtRp2797
(dp2798
g72
(dp2799
sg81
g2436
sg74
(lp2800
g67
(g88
g69
NtRp2801
(dp2802
g72
(dp2803
g92
g93
ssg81
g2797
sg74
(lp2804
S'SERVER_PROTOCOL'
p2805
asbag67
(g88
g69
NtRp2806
(dp2807
g72
(dp2808
g99
g100
ssg81
g2797
sg74
(lp2809
S':'
asbag67
(g88
g69
NtRp2810
(dp2811
g72
(dp2812
sg81
g2797
sg74
(lp2813
g67
(g68
g69
NtRp2814
(dp2815
g72
(dp2816
g80
I3
ssg81
g2810
sg74
(lp2817
g1425
asbasbasbag67
(g83
g69
NtRp2818
(dp2819
g72
(dp2820
sg81
g2436
sg74
(lp2821
g67
(g88
g69
NtRp2822
(dp2823
g72
(dp2824
g92
g93
ssg81
g2818
sg74
(lp2825
S'SERVER_SOFTWARE'
p2826
asbag67
(g88
g69
NtRp2827
(dp2828
g72
(dp2829
g99
g100
ssg81
g2818
sg74
(lp2830
S':'
asbag67
(g88
g69
NtRp2831
(dp2832
g72
(dp2833
sg81
g2818
sg74
(lp2834
g67
(g68
g69
NtRp2835
(dp2836
g72
(dp2837
g80
I3
ssg81
g2831
sg74
(lp2838
g1447
asbasbasbag67
(g83
g69
NtRp2839
(dp2840
g72
(dp2841
sg81
g2436
sg74
(lp2842
g67
(g88
g69
NtRp2843
(dp2844
g72
(dp2845
g92
g93
ssg81
g2839
sg74
(lp2846
S'wsgi.errors'
p2847
asbag67
(g88
g69
NtRp2848
(dp2849
g72
(dp2850
g99
g100
ssg81
g2839
sg74
(lp2851
S':'
asbag67
(g88
g69
NtRp2852
(dp2853
g72
(dp2854
sg81
g2839
sg74
(lp2855
g67
(g68
g69
NtRp2856
(dp2857
g72
(dp2858
g80
I3
ssg81
g2852
sg74
(lp2859
S"<open file '<stderr>', mode 'w' at 0x7ff90a3ce270>"
p2860
asbasbasbag67
(g83
g69
NtRp2861
(dp2862
g72
(dp2863
sg81
g2436
sg74
(lp2864
g67
(g88
g69
NtRp2865
(dp2866
g72
(dp2867
g92
g93
ssg81
g2861
sg74
(lp2868
S'wsgi.file_wrapper'
p2869
asbag67
(g88
g69
NtRp2870
(dp2871
g72
(dp2872
g99
g100
ssg81
g2861
sg74
(lp2873
S':'
asbag67
(g88
g69
NtRp2874
(dp2875
g72
(dp2876
sg81
g2861
sg74
(lp2877
g67
(g68
g69
NtRp2878
(dp2879
g72
(dp2880
g80
I3
ssg81
g2874
sg74
(lp2881
S'<class wsgiref.util.FileWrapper at 0x22e3a78>'
p2882
asbasbasbag67
(g83
g69
NtRp2883
(dp2884
g72
(dp2885
sg81
g2436
sg74
(lp2886
g67
(g88
g69
NtRp2887
(dp2888
g72
(dp2889
g92
g93
ssg81
g2883
sg74
(lp2890
S'wsgi.input'
p2891
asbag67
(g88
g69
NtRp2892
(dp2893
g72
(dp2894
g99
g100
ssg81
g2883
sg74
(lp2895
S':'
asbag67
(g88
g69
NtRp2896
(dp2897
g72
(dp2898
sg81
g2883
sg74
(lp2899
g67
(g68
g69
NtRp2900
(dp2901
g72
(dp2902
g80
I3
ssg81
g2896
sg74
(lp2903
S'<cStringIO.StringO object at 0x2d2b570>'
p2904
asbasbasbag67
(g83
g69
NtRp2905
(dp2906
g72
(dp2907
sg81
g2436
sg74
(lp2908
g67
(g88
g69
NtRp2909
(dp2910
g72
(dp2911
g92
g93
ssg81
g2905
sg74
(lp2912
S'wsgi.multiprocess'
p2913
asbag67
(g88
g69
NtRp2914
(dp2915
g72
(dp2916
g99
g100
ssg81
g2905
sg74
(lp2917
S':'
asbag67
(g88
g69
NtRp2918
(dp2919
g72
(dp2920
sg81
g2905
sg74
(lp2921
g67
(g68
g69
NtRp2922
(dp2923
g72
(dp2924
g80
I3
ssg81
g2918
sg74
(lp2925
g110
asbasbasbag67
(g83
g69
NtRp2926
(dp2927
g72
(dp2928
sg81
g2436
sg74
(lp2929
g67
(g88
g69
NtRp2930
(dp2931
g72
(dp2932
g92
g93
ssg81
g2926
sg74
(lp2933
S'wsgi.multithread'
p2934
asbag67
(g88
g69
NtRp2935
(dp2936
g72
(dp2937
g99
g100
ssg81
g2926
sg74
(lp2938
S':'
asbag67
(g88
g69
NtRp2939
(dp2940
g72
(dp2941
sg81
g2926
sg74
(lp2942
g67
(g68
g69
NtRp2943
(dp2944
g72
(dp2945
g80
I3
ssg81
g2939
sg74
(lp2946
g1687
asbasbasbag67
(g83
g69
NtRp2947
(dp2948
g72
(dp2949
sg81
g2436
sg74
(lp2950
g67
(g88
g69
NtRp2951
(dp2952
g72
(dp2953
g92
g93
ssg81
g2947
sg74
(lp2954
S'wsgi.run_once'
p2955
asbag67
(g88
g69
NtRp2956
(dp2957
g72
(dp2958
g99
g100
ssg81
g2947
sg74
(lp2959
S':'
asbag67
(g88
g69
NtRp2960
(dp2961
g72
(dp2962
sg81
g2947
sg74
(lp2963
g67
(g68
g69
NtRp2964
(dp2965
g72
(dp2966
g80
I3
ssg81
g2960
sg74
(lp2967
g110
asbasbasbag67
(g83
g69
NtRp2968
(dp2969
g72
(dp2970
sg81
g2436
sg74
(lp2971
g67
(g88
g69
NtRp2972
(dp2973
g72
(dp2974
g92
g93
ssg81
g2968
sg74
(lp2975
S'wsgi.url_scheme'
p2976
asbag67
(g88
g69
NtRp2977
(dp2978
g72
(dp2979
g99
g100
ssg81
g2968
sg74
(lp2980
S':'
asbag67
(g88
g69
NtRp2981
(dp2982
g72
(dp2983
sg81
g2968
sg74
(lp2984
g67
(g68
g69
NtRp2985
(dp2986
g72
(dp2987
g80
I3
ssg81
g2981
sg74
(lp2988
g1730
asbasbasbag67
(g83
g69
NtRp2989
(dp2990
g72
(dp2991
sg81
g2436
sg74
(lp2992
g67
(g88
g69
NtRp2993
(dp2994
g72
(dp2995
g92
g93
ssg81
g2989
sg74
(lp2996
S'wsgi.version'
p2997
asbag67
(g88
g69
NtRp2998
(dp2999
g72
(dp3000
g99
g100
ssg81
g2989
sg74
(lp3001
S':'
asbag67
(g88
g69
NtRp3002
(dp3003
g72
(dp3004
sg81
g2989
sg74
(lp3005
g67
(g68
g69
NtRp3006
(dp3007
g72
(dp3008
g80
I3
ssg81
g3002
sg74
(lp3009
S'1'
asbasbasbasbasbasbasbasbasbasbasbasbasbsS'frames'
p3010
(lp3011
(dp3012
S'file'
p3013
S'/home/bruce/projects/web2py/gluon/restricted.py'
p3014
sS'dump'
p3015
(dp3016
S'code'
p3017
S'\'response.write(\\\'<!DOCTYPE html>\\\\n<html lang="en"...script>\\\\n\\\\n  \\\\n\\\\n</body></html>\\\\n\\\', escape=False)\''
p3018
sS'layer'
p3019
S"'/home/bruce/projects/web2py/applications/init/views/default/index.html'"
p3020
sS'global compile2'
p3021
S'<function compile2>'
p3022
sS'ccode'
p3023
S'undefined'
p3024
ssS'lnum'
p3025
I203
sS'lines'
p3026
(dp3027
I198
S"    environment['__file__'] = layer"
p3028
sI199
S'    try:'
p3029
sI200
S'        if type(code) == types.CodeType:'
p3030
sI201
S'            ccode = code'
p3031
sI202
S'        else:'
p3032
sI203
S'            ccode = compile2(code,layer)'
p3033
sI204
S'        exec ccode in environment'
p3034
sI205
S'    except HTTP:'
p3035
sI206
S'        raise'
p3036
sI207
S'    except RestrictedError:'
p3037
ssS'call'
p3038
S'(code=\'response.write(\\\'<!DOCTYPE html>\\\\n<html lang="en"...script>\\\\n\\\\n  \\\\n\\\\n</body></html>\\\\n\\\', escape=False)\', environment={\'A\': <class \'gluon.html.A\'>, \'Auth\': <class \'gluon.tools.Auth\'>, \'B\': <class \'gluon.html.B\'>, \'BEAUTIFY\': <class \'gluon.html.BEAUTIFY\'>, \'BODY\': <class \'gluon.html.BODY\'>, \'BR\': <class \'gluon.html.BR\'>, \'BUTTON\': <class \'gluon.html.BUTTON\'>, \'CAT\': <class \'gluon.html.CAT\'>, \'CENTER\': <class \'gluon.html.CENTER\'>, \'CLEANUP\': <class \'gluon.validators.CLEANUP\'>, ...}, layer=\'/home/bruce/projects/web2py/applications/init/views/default/index.html\')'
p3039
sS'func'
p3040
S'restricted'
p3041
sa(dp3042
g3013
S'/home/bruce/projects/web2py/gluon/restricted.py'
p3043
sg3015
(dp3044
S'builtincompile'
p3045
S'<built-in function compile>'
p3046
sS'code'
p3047
S'\'response.write(\\\'<!DOCTYPE html>\\\\n<html lang="en"...script>\\\\n\\\\n  \\\\n\\\\n</body></html>\\\\n\\\', escape=False)\''
p3048
sS'code.rstrip'
p3049
S'<built-in method rstrip of str object>'
p3050
sS').replace'
p3051
g3024
sS'layer'
p3052
S"'/home/bruce/projects/web2py/applications/init/views/default/index.html'"
p3053
ssg3025
I189
sg3026
(dp3054
I192
S'    """'
p3055
sI193
S'    runs code in environment and returns the output. if an exception occurs'
p3056
sI184
S''
sI185
S'def compile2(code,layer):'
p3057
sI186
S'    """'
p3058
sI187
S"    The +'\\n' is necessary else compile fails when code ends in a comment."
p3059
sI188
S'    """'
p3060
sI189
S"    return compile(code.rstrip().replace('\\r\\n','\\n')+'\\n', layer, 'exec')"
p3061
sI190
S''
sI191
S"def restricted(code, environment=None, layer='Unknown'):"
p3062
ssg3038
S'(code=\'response.write(\\\'<!DOCTYPE html>\\\\n<html lang="en"...script>\\\\n\\\\n  \\\\n\\\\n</body></html>\\\\n\\\', escape=False)\', layer=\'/home/bruce/projects/web2py/applications/init/views/default/index.html\')'
p3063
sg3040
S'compile2'
p3064
sasS'pyver'
p3065
S'Python 2.7.2+: /usr/bin/python'
p3066
sS'session'
p3067
g67
(g68
g69
NtRp3068
(dp3069
g72
(dp3070
sg74
(lp3071
g67
(g76
g69
NtRp3072
(dp3073
g72
(dp3074
g80
I5
ssg81
Nsg74
(lp3075
sbasbsS'etype'
p3076
S"<type 'exceptions.SyntaxError'>"
p3077
sS'date'
p3078
S'Sun Jan  8 21:29:43 2012'
p3079
sS'response'
p3080
g67
(g68
g69
NtRp3081
(dp3082
g72
(dp3083
sg74
(lp3084
g67
(g76
g69
NtRp3085
(dp3086
g72
(dp3087
g80
I5
ssg81
Nsg74
(lp3088
g67
(g83
g69
NtRp3089
(dp3090
g72
(dp3091
sg81
g3085
sg74
(lp3092
g67
(g88
g69
NtRp3093
(dp3094
g72
(dp3095
g92
g93
ssg81
g3089
sg74
(lp3096
g165
asbag67
(g88
g69
NtRp3097
(dp3098
g72
(dp3099
g99
g100
ssg81
g3089
sg74
(lp3100
S':'
asbag67
(g88
g69
NtRp3101
(dp3102
g72
(dp3103
sg81
g3089
sg74
(lp3104
g67
(g68
g69
NtRp3105
(dp3106
g72
(dp3107
g80
I5
ssg81
g3101
sg74
(lp3108
S'<cStringIO.StringO object at 0x49b29d0>'
p3109
asbasbasbag67
(g83
g69
NtRp3110
(dp3111
g72
(dp3112
sg81
g3085
sg74
(lp3113
g67
(g88
g69
NtRp3114
(dp3115
g72
(dp3116
g92
g93
ssg81
g3110
sg74
(lp3117
g231
asbag67
(g88
g69
NtRp3118
(dp3119
g72
(dp3120
g99
g100
ssg81
g3110
sg74
(lp3121
S':'
asbag67
(g88
g69
NtRp3122
(dp3123
g72
(dp3124
sg81
g3110
sg74
(lp3125
g67
(g68
g69
NtRp3126
(dp3127
g72
(dp3128
g80
I5
ssg81
g3122
sg74
(lp3129
g67
(g76
g69
NtRp3130
(dp3131
g72
(dp3132
g80
I4
ssg81
Nsg74
(lp3133
g67
(g83
g69
NtRp3134
(dp3135
g72
(dp3136
sg81
g3130
sg74
(lp3137
g67
(g88
g69
NtRp3138
(dp3139
g72
(dp3140
g92
g93
ssg81
g3134
sg74
(lp3141
S'session_id_init'
p3142
asbag67
(g88
g69
NtRp3143
(dp3144
g72
(dp3145
g99
g100
ssg81
g3134
sg74
(lp3146
S':'
asbag67
(g88
g69
NtRp3147
(dp3148
g72
(dp3149
sg81
g3134
sg74
(lp3150
g67
(g68
g69
NtRp3151
(dp3152
g72
(dp3153
g80
I4
ssg81
g3147
sg74
(lp3154
g67
(g76
g69
NtRp3155
(dp3156
g72
(dp3157
g80
I3
ssg81
Nsg74
(lp3158
g67
(g83
g69
NtRp3159
(dp3160
g72
(dp3161
sg81
g3155
sg74
(lp3162
g67
(g88
g69
NtRp3163
(dp3164
g72
(dp3165
g92
g93
ssg81
g3159
sg74
(lp3166
g281
asbag67
(g88
g69
NtRp3167
(dp3168
g72
(dp3169
g99
g100
ssg81
g3159
sg74
(lp3170
S':'
asbag67
(g88
g69
NtRp3171
(dp3172
g72
(dp3173
sg81
g3159
sg74
(lp3174
g67
(g68
g69
NtRp3175
(dp3176
g72
(dp3177
g80
I3
ssg81
g3171
sg74
(lp3178
S''
asbasbasbag67
(g83
g69
NtRp3179
(dp3180
g72
(dp3181
sg81
g3155
sg74
(lp3182
g67
(g88
g69
NtRp3183
(dp3184
g72
(dp3185
g92
g93
ssg81
g3179
sg74
(lp3186
g302
asbag67
(g88
g69
NtRp3187
(dp3188
g72
(dp3189
g99
g100
ssg81
g3179
sg74
(lp3190
S':'
asbag67
(g88
g69
NtRp3191
(dp3192
g72
(dp3193
sg81
g3179
sg74
(lp3194
g67
(g68
g69
NtRp3195
(dp3196
g72
(dp3197
g80
I3
ssg81
g3191
sg74
(lp3198
S''
asbasbasbag67
(g83
g69
NtRp3199
(dp3200
g72
(dp3201
sg81
g3155
sg74
(lp3202
g67
(g88
g69
NtRp3203
(dp3204
g72
(dp3205
g92
g93
ssg81
g3199
sg74
(lp3206
g323
asbag67
(g88
g69
NtRp3207
(dp3208
g72
(dp3209
g99
g100
ssg81
g3199
sg74
(lp3210
S':'
asbag67
(g88
g69
NtRp3211
(dp3212
g72
(dp3213
sg81
g3199
sg74
(lp3214
g67
(g68
g69
NtRp3215
(dp3216
g72
(dp3217
g80
I3
ssg81
g3211
sg74
(lp3218
S''
asbasbasbag67
(g83
g69
NtRp3219
(dp3220
g72
(dp3221
sg81
g3155
sg74
(lp3222
g67
(g88
g69
NtRp3223
(dp3224
g72
(dp3225
g92
g93
ssg81
g3219
sg74
(lp3226
g344
asbag67
(g88
g69
NtRp3227
(dp3228
g72
(dp3229
g99
g100
ssg81
g3219
sg74
(lp3230
S':'
asbag67
(g88
g69
NtRp3231
(dp3232
g72
(dp3233
sg81
g3219
sg74
(lp3234
g67
(g68
g69
NtRp3235
(dp3236
g72
(dp3237
g80
I3
ssg81
g3231
sg74
(lp3238
S''
asbasbasbag67
(g83
g69
NtRp3239
(dp3240
g72
(dp3241
sg81
g3155
sg74
(lp3242
g67
(g88
g69
NtRp3243
(dp3244
g72
(dp3245
g92
g93
ssg81
g3239
sg74
(lp3246
g365
asbag67
(g88
g69
NtRp3247
(dp3248
g72
(dp3249
g99
g100
ssg81
g3239
sg74
(lp3250
S':'
asbag67
(g88
g69
NtRp3251
(dp3252
g72
(dp3253
sg81
g3239
sg74
(lp3254
g67
(g68
g69
NtRp3255
(dp3256
g72
(dp3257
g80
I3
ssg81
g3251
sg74
(lp3258
S''
asbasbasbag67
(g83
g69
NtRp3259
(dp3260
g72
(dp3261
sg81
g3155
sg74
(lp3262
g67
(g88
g69
NtRp3263
(dp3264
g72
(dp3265
g92
g93
ssg81
g3259
sg74
(lp3266
g386
asbag67
(g88
g69
NtRp3267
(dp3268
g72
(dp3269
g99
g100
ssg81
g3259
sg74
(lp3270
S':'
asbag67
(g88
g69
NtRp3271
(dp3272
g72
(dp3273
sg81
g3259
sg74
(lp3274
g67
(g68
g69
NtRp3275
(dp3276
g72
(dp3277
g80
I3
ssg81
g3271
sg74
(lp3278
S'/'
asbasbasbag67
(g83
g69
NtRp3279
(dp3280
g72
(dp3281
sg81
g3155
sg74
(lp3282
g67
(g88
g69
NtRp3283
(dp3284
g72
(dp3285
g92
g93
ssg81
g3279
sg74
(lp3286
g407
asbag67
(g88
g69
NtRp3287
(dp3288
g72
(dp3289
g99
g100
ssg81
g3279
sg74
(lp3290
S':'
asbag67
(g88
g69
NtRp3291
(dp3292
g72
(dp3293
sg81
g3279
sg74
(lp3294
g67
(g68
g69
NtRp3295
(dp3296
g72
(dp3297
g80
I3
ssg81
g3291
sg74
(lp3298
S''
asbasbasbag67
(g83
g69
NtRp3299
(dp3300
g72
(dp3301
sg81
g3155
sg74
(lp3302
g67
(g88
g69
NtRp3303
(dp3304
g72
(dp3305
g92
g93
ssg81
g3299
sg74
(lp3306
g428
asbag67
(g88
g69
NtRp3307
(dp3308
g72
(dp3309
g99
g100
ssg81
g3299
sg74
(lp3310
S':'
asbag67
(g88
g69
NtRp3311
(dp3312
g72
(dp3313
sg81
g3299
sg74
(lp3314
g67
(g68
g69
NtRp3315
(dp3316
g72
(dp3317
g80
I3
ssg81
g3311
sg74
(lp3318
S''
asbasbasbasbasbasbasbasbasbasbasbag67
(g83
g69
NtRp3319
(dp3320
g72
(dp3321
sg81
g3085
sg74
(lp3322
g67
(g88
g69
NtRp3323
(dp3324
g72
(dp3325
g92
g93
ssg81
g3319
sg74
(lp3326
S'files'
p3327
asbag67
(g88
g69
NtRp3328
(dp3329
g72
(dp3330
g99
g100
ssg81
g3319
sg74
(lp3331
S':'
asbag67
(g88
g69
NtRp3332
(dp3333
g72
(dp3334
sg81
g3319
sg74
(lp3335
g67
(g68
g69
NtRp3336
(dp3337
g72
(dp3338
g80
I5
ssg81
g3332
sg74
(lp3339
g67
(g76
g69
NtRp3340
(dp3341
g72
(dp3342
g80
I4
ssg81
Nsg74
(lp3343
sbasbasbasbag67
(g83
g69
NtRp3344
(dp3345
g72
(dp3346
sg81
g3085
sg74
(lp3347
g67
(g88
g69
NtRp3348
(dp3349
g72
(dp3350
g92
g93
ssg81
g3344
sg74
(lp3351
S'flash'
p3352
asbag67
(g88
g69
NtRp3353
(dp3354
g72
(dp3355
g99
g100
ssg81
g3344
sg74
(lp3356
S':'
asbag67
(g88
g69
NtRp3357
(dp3358
g72
(dp3359
sg81
g3344
sg74
(lp3360
g67
(g68
g69
NtRp3361
(dp3362
g72
(dp3363
g80
I5
ssg81
g3357
sg74
(lp3364
S''
asbasbasbag67
(g83
g69
NtRp3365
(dp3366
g72
(dp3367
sg81
g3085
sg74
(lp3368
g67
(g88
g69
NtRp3369
(dp3370
g72
(dp3371
g92
g93
ssg81
g3365
sg74
(lp3372
S'generic_patterns'
p3373
asbag67
(g88
g69
NtRp3374
(dp3375
g72
(dp3376
g99
g100
ssg81
g3365
sg74
(lp3377
S':'
asbag67
(g88
g69
NtRp3378
(dp3379
g72
(dp3380
sg81
g3365
sg74
(lp3381
g67
(g68
g69
NtRp3382
(dp3383
g72
(dp3384
g80
I5
ssg81
g3378
sg74
(lp3385
g67
(g76
g69
NtRp3386
(dp3387
g72
(dp3388
g80
I4
ssg81
Nsg74
(lp3389
g67
(g83
g69
NtRp3390
(dp3391
g72
(dp3392
sg81
g3386
sg74
(lp3393
g67
(g88
g69
NtRp3394
(dp3395
g72
(dp3396
sg81
g3390
sg74
(lp3397
g67
(g68
g69
NtRp3398
(dp3399
g72
(dp3400
g80
I4
ssg81
g3394
sg74
(lp3401
S'*'
asbasbasbasbasbasbasbag67
(g83
g69
NtRp3402
(dp3403
g72
(dp3404
sg81
g3085
sg74
(lp3405
g67
(g88
g69
NtRp3406
(dp3407
g72
(dp3408
g92
g93
ssg81
g3402
sg74
(lp3409
S'headers'
p3410
asbag67
(g88
g69
NtRp3411
(dp3412
g72
(dp3413
g99
g100
ssg81
g3402
sg74
(lp3414
S':'
asbag67
(g88
g69
NtRp3415
(dp3416
g72
(dp3417
sg81
g3402
sg74
(lp3418
g67
(g68
g69
NtRp3419
(dp3420
g72
(dp3421
g80
I5
ssg81
g3415
sg74
(lp3422
g67
(g76
g69
NtRp3423
(dp3424
g72
(dp3425
g80
I4
ssg81
Nsg74
(lp3426
g67
(g83
g69
NtRp3427
(dp3428
g72
(dp3429
sg81
g3423
sg74
(lp3430
g67
(g88
g69
NtRp3431
(dp3432
g72
(dp3433
g92
g93
ssg81
g3427
sg74
(lp3434
S'Cache-Control'
p3435
asbag67
(g88
g69
NtRp3436
(dp3437
g72
(dp3438
g99
g100
ssg81
g3427
sg74
(lp3439
S':'
asbag67
(g88
g69
NtRp3440
(dp3441
g72
(dp3442
sg81
g3427
sg74
(lp3443
g67
(g68
g69
NtRp3444
(dp3445
g72
(dp3446
g80
I4
ssg81
g3440
sg74
(lp3447
S'no-store, no-cache, must-revalidate, post-check=0, pre-check=0'
p3448
asbasbasbag67
(g83
g69
NtRp3449
(dp3450
g72
(dp3451
sg81
g3423
sg74
(lp3452
g67
(g88
g69
NtRp3453
(dp3454
g72
(dp3455
g92
g93
ssg81
g3449
sg74
(lp3456
S'Content-Type'
p3457
asbag67
(g88
g69
NtRp3458
(dp3459
g72
(dp3460
g99
g100
ssg81
g3449
sg74
(lp3461
S':'
asbag67
(g88
g69
NtRp3462
(dp3463
g72
(dp3464
sg81
g3449
sg74
(lp3465
g67
(g68
g69
NtRp3466
(dp3467
g72
(dp3468
g80
I4
ssg81
g3462
sg74
(lp3469
S'text/html; charset=utf-8'
p3470
asbasbasbag67
(g83
g69
NtRp3471
(dp3472
g72
(dp3473
sg81
g3423
sg74
(lp3474
g67
(g88
g69
NtRp3475
(dp3476
g72
(dp3477
g92
g93
ssg81
g3471
sg74
(lp3478
S'Expires'
p3479
asbag67
(g88
g69
NtRp3480
(dp3481
g72
(dp3482
g99
g100
ssg81
g3471
sg74
(lp3483
S':'
asbag67
(g88
g69
NtRp3484
(dp3485
g72
(dp3486
sg81
g3471
sg74
(lp3487
g67
(g68
g69
NtRp3488
(dp3489
g72
(dp3490
g80
I4
ssg81
g3484
sg74
(lp3491
S'Sun, 08 Jan 2012 23:29:43 GMT'
p3492
asbasbasbag67
(g83
g69
NtRp3493
(dp3494
g72
(dp3495
sg81
g3423
sg74
(lp3496
g67
(g88
g69
NtRp3497
(dp3498
g72
(dp3499
g92
g93
ssg81
g3493
sg74
(lp3500
S'Pragma'
p3501
asbag67
(g88
g69
NtRp3502
(dp3503
g72
(dp3504
g99
g100
ssg81
g3493
sg74
(lp3505
S':'
asbag67
(g88
g69
NtRp3506
(dp3507
g72
(dp3508
sg81
g3493
sg74
(lp3509
g67
(g68
g69
NtRp3510
(dp3511
g72
(dp3512
g80
I4
ssg81
g3506
sg74
(lp3513
S'no-cache'
p3514
asbasbasbag67
(g83
g69
NtRp3515
(dp3516
g72
(dp3517
sg81
g3423
sg74
(lp3518
g67
(g88
g69
NtRp3519
(dp3520
g72
(dp3521
g92
g93
ssg81
g3515
sg74
(lp3522
S'X-Powered-By'
p3523
asbag67
(g88
g69
NtRp3524
(dp3525
g72
(dp3526
g99
g100
ssg81
g3515
sg74
(lp3527
S':'
asbag67
(g88
g69
NtRp3528
(dp3529
g72
(dp3530
sg81
g3515
sg74
(lp3531
g67
(g68
g69
NtRp3532
(dp3533
g72
(dp3534
g80
I4
ssg81
g3528
sg74
(lp3535
S'web2py'
p3536
asbasbasbasbasbasbasbag67
(g83
g69
NtRp3537
(dp3538
g72
(dp3539
sg81
g3085
sg74
(lp3540
g67
(g88
g69
NtRp3541
(dp3542
g72
(dp3543
g92
g93
ssg81
g3537
sg74
(lp3544
S'menu'
p3545
asbag67
(g88
g69
NtRp3546
(dp3547
g72
(dp3548
g99
g100
ssg81
g3537
sg74
(lp3549
S':'
asbag67
(g88
g69
NtRp3550
(dp3551
g72
(dp3552
sg81
g3537
sg74
(lp3553
g67
(g68
g69
NtRp3554
(dp3555
g72
(dp3556
g80
I5
ssg81
g3550
sg74
(lp3557
g67
(g76
g69
NtRp3558
(dp3559
g72
(dp3560
g80
I4
ssg81
Nsg74
(lp3561
g67
(g83
g69
NtRp3562
(dp3563
g72
(dp3564
sg81
g3558
sg74
(lp3565
g67
(g88
g69
NtRp3566
(dp3567
g72
(dp3568
sg81
g3562
sg74
(lp3569
g67
(g68
g69
NtRp3570
(dp3571
g72
(dp3572
g80
I4
ssg81
g3566
sg74
(lp3573
g67
(g76
g69
NtRp3574
(dp3575
g72
(dp3576
g80
I3
ssg81
Nsg74
(lp3577
g67
(g83
g69
NtRp3578
(dp3579
g72
(dp3580
sg81
g3574
sg74
(lp3581
g67
(g88
g69
NtRp3582
(dp3583
g72
(dp3584
sg81
g3578
sg74
(lp3585
g67
(g68
g69
NtRp3586
(dp3587
g72
(dp3588
g80
I3
ssg81
g3582
sg74
(lp3589
cgluon.languages
lazyT_unpickle
p3590
(S't\x04\x00\x00\x00Home'
tRp3591
asbasbasbag67
(g83
g69
NtRp3592
(dp3593
g72
(dp3594
sg81
g3574
sg74
(lp3595
g67
(g88
g69
NtRp3596
(dp3597
g72
(dp3598
sg81
g3592
sg74
(lp3599
g67
(g68
g69
NtRp3600
(dp3601
g72
(dp3602
g80
I3
ssg81
g3596
sg74
(lp3603
g110
asbasbasbag67
(g83
g69
NtRp3604
(dp3605
g72
(dp3606
sg81
g3574
sg74
(lp3607
g67
(g88
g69
NtRp3608
(dp3609
g72
(dp3610
sg81
g3604
sg74
(lp3611
g67
(g68
g69
NtRp3612
(dp3613
g72
(dp3614
g80
I3
ssg81
g3608
sg74
(lp3615
S'/init/default/index'
p3616
asbasbasbag67
(g83
g69
NtRp3617
(dp3618
g72
(dp3619
sg81
g3574
sg74
(lp3620
g67
(g88
g69
NtRp3621
(dp3622
g72
(dp3623
sg81
g3617
sg74
(lp3624
g67
(g68
g69
NtRp3625
(dp3626
g72
(dp3627
g80
I3
ssg81
g3621
sg74
(lp3628
g67
(g76
g69
NtRp3629
(dp3630
g72
(dp3631
g80
I2
ssg81
Nsg74
(lp3632
sbasbasbasbasbasbasbasbag67
(g83
g69
NtRp3633
(dp3634
g72
(dp3635
sg81
g3558
sg74
(lp3636
g67
(g88
g69
NtRp3637
(dp3638
g72
(dp3639
sg81
g3633
sg74
(lp3640
g67
(g68
g69
NtRp3641
(dp3642
g72
(dp3643
g80
I4
ssg81
g3637
sg74
(lp3644
g67
(g76
g69
NtRp3645
(dp3646
g72
(dp3647
g80
I3
ssg81
Nsg74
(lp3648
g67
(g83
g69
NtRp3649
(dp3650
g72
(dp3651
sg81
g3645
sg74
(lp3652
g67
(g88
g69
NtRp3653
(dp3654
g72
(dp3655
sg81
g3649
sg74
(lp3656
g67
(g68
g69
NtRp3657
(dp3658
g72
(dp3659
g80
I3
ssg81
g3653
sg74
(lp3660
g3590
(S's\x08\x00\x00\x00This App'
tRp3661
asbasbasbag67
(g83
g69
NtRp3662
(dp3663
g72
(dp3664
sg81
g3645
sg74
(lp3665
g67
(g88
g69
NtRp3666
(dp3667
g72
(dp3668
sg81
g3662
sg74
(lp3669
g67
(g68
g69
NtRp3670
(dp3671
g72
(dp3672
g80
I3
ssg81
g3666
sg74
(lp3673
g110
asbasbasbag67
(g83
g69
NtRp3674
(dp3675
g72
(dp3676
sg81
g3645
sg74
(lp3677
g67
(g88
g69
NtRp3678
(dp3679
g72
(dp3680
sg81
g3674
sg74
(lp3681
g67
(g68
g69
NtRp3682
(dp3683
g72
(dp3684
g80
I3
ssg81
g3678
sg74
(lp3685
S'/admin/default/design/init'
p3686
asbasbasbag67
(g83
g69
NtRp3687
(dp3688
g72
(dp3689
sg81
g3645
sg74
(lp3690
g67
(g88
g69
NtRp3691
(dp3692
g72
(dp3693
sg81
g3687
sg74
(lp3694
g67
(g68
g69
NtRp3695
(dp3696
g72
(dp3697
g80
I3
ssg81
g3691
sg74
(lp3698
g67
(g76
g69
NtRp3699
(dp3700
g72
(dp3701
g80
I2
ssg81
Nsg74
(lp3702
g67
(g83
g69
NtRp3703
(dp3704
g72
(dp3705
sg81
g3699
sg74
(lp3706
g67
(g88
g69
NtRp3707
(dp3708
g72
(dp3709
sg81
g3703
sg74
(lp3710
g67
(g68
g69
NtRp3711
(dp3712
g72
(dp3713
g80
I2
ssg81
g3707
sg74
(lp3714
g67
(g76
g69
NtRp3715
(dp3716
g72
(dp3717
g80
I1
ssg81
Nsg74
(lp3718
g67
(g83
g69
NtRp3719
(dp3720
g72
(dp3721
sg81
g3715
sg74
(lp3722
g67
(g88
g69
NtRp3723
(dp3724
g72
(dp3725
sg81
g3719
sg74
(lp3726
g67
(g68
g69
NtRp3727
(dp3728
g72
(dp3729
g80
I1
ssg81
g3723
sg74
(lp3730
g3590
(S't\n\x00\x00\x00Controller'
tRp3731
asbasbasbag67
(g83
g69
NtRp3732
(dp3733
g72
(dp3734
sg81
g3715
sg74
(lp3735
g67
(g88
g69
NtRp3736
(dp3737
g72
(dp3738
sg81
g3732
sg74
(lp3739
g67
(g68
g69
NtRp3740
(dp3741
g72
(dp3742
g80
I1
ssg81
g3736
sg74
(lp3743
I00
asbasbasbag67
(g83
g69
NtRp3744
(dp3745
g72
(dp3746
sg81
g3715
sg74
(lp3747
g67
(g88
g69
NtRp3748
(dp3749
g72
(dp3750
sg81
g3744
sg74
(lp3751
g67
(g68
g69
NtRp3752
(dp3753
g72
(dp3754
g80
I1
ssg81
g3748
sg74
(lp3755
S'/admin/default/edit/init/controllers/default.py'
p3756
asbasbasbasbasbasbasbag67
(g83
g69
NtRp3757
(dp3758
g72
(dp3759
sg81
g3699
sg74
(lp3760
g67
(g88
g69
NtRp3761
(dp3762
g72
(dp3763
sg81
g3757
sg74
(lp3764
g67
(g68
g69
NtRp3765
(dp3766
g72
(dp3767
g80
I2
ssg81
g3761
sg74
(lp3768
g67
(g76
g69
NtRp3769
(dp3770
g72
(dp3771
g80
I1
ssg81
Nsg74
(lp3772
g67
(g83
g69
NtRp3773
(dp3774
g72
(dp3775
sg81
g3769
sg74
(lp3776
g67
(g88
g69
NtRp3777
(dp3778
g72
(dp3779
sg81
g3773
sg74
(lp3780
g67
(g68
g69
NtRp3781
(dp3782
g72
(dp3783
g80
I1
ssg81
g3777
sg74
(lp3784
g3590
(S't\x04\x00\x00\x00View'
tRp3785
asbasbasbag67
(g83
g69
NtRp3786
(dp3787
g72
(dp3788
sg81
g3769
sg74
(lp3789
g67
(g88
g69
NtRp3790
(dp3791
g72
(dp3792
sg81
g3786
sg74
(lp3793
g67
(g68
g69
NtRp3794
(dp3795
g72
(dp3796
g80
I1
ssg81
g3790
sg74
(lp3797
I00
asbasbasbag67
(g83
g69
NtRp3798
(dp3799
g72
(dp3800
sg81
g3769
sg74
(lp3801
g67
(g88
g69
NtRp3802
(dp3803
g72
(dp3804
sg81
g3798
sg74
(lp3805
g67
(g68
g69
NtRp3806
(dp3807
g72
(dp3808
g80
I1
ssg81
g3802
sg74
(lp3809
S'/admin/default/edit/init/views/default/index.html'
p3810
asbasbasbasbasbasbasbag67
(g83
g69
NtRp3811
(dp3812
g72
(dp3813
sg81
g3699
sg74
(lp3814
g67
(g88
g69
NtRp3815
(dp3816
g72
(dp3817
sg81
g3811
sg74
(lp3818
g67
(g68
g69
NtRp3819
(dp3820
g72
(dp3821
g80
I2
ssg81
g3815
sg74
(lp3822
g67
(g76
g69
NtRp3823
(dp3824
g72
(dp3825
g80
I1
ssg81
Nsg74
(lp3826
g67
(g83
g69
NtRp3827
(dp3828
g72
(dp3829
sg81
g3823
sg74
(lp3830
g67
(g88
g69
NtRp3831
(dp3832
g72
(dp3833
sg81
g3827
sg74
(lp3834
g67
(g68
g69
NtRp3835
(dp3836
g72
(dp3837
g80
I1
ssg81
g3831
sg74
(lp3838
g3590
(S't\x06\x00\x00\x00Layout'
tRp3839
asbasbasbag67
(g83
g69
NtRp3840
(dp3841
g72
(dp3842
sg81
g3823
sg74
(lp3843
g67
(g88
g69
NtRp3844
(dp3845
g72
(dp3846
sg81
g3840
sg74
(lp3847
g67
(g68
g69
NtRp3848
(dp3849
g72
(dp3850
g80
I1
ssg81
g3844
sg74
(lp3851
I00
asbasbasbag67
(g83
g69
NtRp3852
(dp3853
g72
(dp3854
sg81
g3823
sg74
(lp3855
g67
(g88
g69
NtRp3856
(dp3857
g72
(dp3858
sg81
g3852
sg74
(lp3859
g67
(g68
g69
NtRp3860
(dp3861
g72
(dp3862
g80
I1
ssg81
g3856
sg74
(lp3863
S'/admin/default/edit/init/views/layout.html'
p3864
asbasbasbasbasbasbasbag67
(g83
g69
NtRp3865
(dp3866
g72
(dp3867
sg81
g3699
sg74
(lp3868
g67
(g88
g69
NtRp3869
(dp3870
g72
(dp3871
sg81
g3865
sg74
(lp3872
g67
(g68
g69
NtRp3873
(dp3874
g72
(dp3875
g80
I2
ssg81
g3869
sg74
(lp3876
g67
(g76
g69
NtRp3877
(dp3878
g72
(dp3879
g80
I1
ssg81
Nsg74
(lp3880
g67
(g83
g69
NtRp3881
(dp3882
g72
(dp3883
sg81
g3877
sg74
(lp3884
g67
(g88
g69
NtRp3885
(dp3886
g72
(dp3887
sg81
g3881
sg74
(lp3888
g67
(g68
g69
NtRp3889
(dp3890
g72
(dp3891
g80
I1
ssg81
g3885
sg74
(lp3892
g3590
(S't\n\x00\x00\x00Stylesheet'
tRp3893
asbasbasbag67
(g83
g69
NtRp3894
(dp3895
g72
(dp3896
sg81
g3877
sg74
(lp3897
g67
(g88
g69
NtRp3898
(dp3899
g72
(dp3900
sg81
g3894
sg74
(lp3901
g67
(g68
g69
NtRp3902
(dp3903
g72
(dp3904
g80
I1
ssg81
g3898
sg74
(lp3905
I00
asbasbasbag67
(g83
g69
NtRp3906
(dp3907
g72
(dp3908
sg81
g3877
sg74
(lp3909
g67
(g88
g69
NtRp3910
(dp3911
g72
(dp3912
sg81
g3906
sg74
(lp3913
g67
(g68
g69
NtRp3914
(dp3915
g72
(dp3916
g80
I1
ssg81
g3910
sg74
(lp3917
S'/admin/default/edit/init/static/base.css'
p3918
asbasbasbasbasbasbasbag67
(g83
g69
NtRp3919
(dp3920
g72
(dp3921
sg81
g3699
sg74
(lp3922
g67
(g88
g69
NtRp3923
(dp3924
g72
(dp3925
sg81
g3919
sg74
(lp3926
g67
(g68
g69
NtRp3927
(dp3928
g72
(dp3929
g80
I2
ssg81
g3923
sg74
(lp3930
g67
(g76
g69
NtRp3931
(dp3932
g72
(dp3933
g80
I1
ssg81
Nsg74
(lp3934
g67
(g83
g69
NtRp3935
(dp3936
g72
(dp3937
sg81
g3931
sg74
(lp3938
g67
(g88
g69
NtRp3939
(dp3940
g72
(dp3941
sg81
g3935
sg74
(lp3942
g67
(g68
g69
NtRp3943
(dp3944
g72
(dp3945
g80
I1
ssg81
g3939
sg74
(lp3946
g3590
(S's\x08\x00\x00\x00DB Model'
tRp3947
asbasbasbag67
(g83
g69
NtRp3948
(dp3949
g72
(dp3950
sg81
g3931
sg74
(lp3951
g67
(g88
g69
NtRp3952
(dp3953
g72
(dp3954
sg81
g3948
sg74
(lp3955
g67
(g68
g69
NtRp3956
(dp3957
g72
(dp3958
g80
I1
ssg81
g3952
sg74
(lp3959
I00
asbasbasbag67
(g83
g69
NtRp3960
(dp3961
g72
(dp3962
sg81
g3931
sg74
(lp3963
g67
(g88
g69
NtRp3964
(dp3965
g72
(dp3966
sg81
g3960
sg74
(lp3967
g67
(g68
g69
NtRp3968
(dp3969
g72
(dp3970
g80
I1
ssg81
g3964
sg74
(lp3971
S'/admin/default/edit/init/models/db.py'
p3972
asbasbasbasbasbasbasbag67
(g83
g69
NtRp3973
(dp3974
g72
(dp3975
sg81
g3699
sg74
(lp3976
g67
(g88
g69
NtRp3977
(dp3978
g72
(dp3979
sg81
g3973
sg74
(lp3980
g67
(g68
g69
NtRp3981
(dp3982
g72
(dp3983
g80
I2
ssg81
g3977
sg74
(lp3984
g67
(g76
g69
NtRp3985
(dp3986
g72
(dp3987
g80
I1
ssg81
Nsg74
(lp3988
g67
(g83
g69
NtRp3989
(dp3990
g72
(dp3991
sg81
g3985
sg74
(lp3992
g67
(g88
g69
NtRp3993
(dp3994
g72
(dp3995
sg81
g3989
sg74
(lp3996
g67
(g68
g69
NtRp3997
(dp3998
g72
(dp3999
g80
I1
ssg81
g3993
sg74
(lp4000
g3590
(S's\n\x00\x00\x00Menu Model'
tRp4001
asbasbasbag67
(g83
g69
NtRp4002
(dp4003
g72
(dp4004
sg81
g3985
sg74
(lp4005
g67
(g88
g69
NtRp4006
(dp4007
g72
(dp4008
sg81
g4002
sg74
(lp4009
g67
(g68
g69
NtRp4010
(dp4011
g72
(dp4012
g80
I1
ssg81
g4006
sg74
(lp4013
I00
asbasbasbag67
(g83
g69
NtRp4014
(dp4015
g72
(dp4016
sg81
g3985
sg74
(lp4017
g67
(g88
g69
NtRp4018
(dp4019
g72
(dp4020
sg81
g4014
sg74
(lp4021
g67
(g68
g69
NtRp4022
(dp4023
g72
(dp4024
g80
I1
ssg81
g4018
sg74
(lp4025
S'/admin/default/edit/init/models/menu.py'
p4026
asbasbasbasbasbasbasbag67
(g83
g69
NtRp4027
(dp4028
g72
(dp4029
sg81
g3699
sg74
(lp4030
g67
(g88
g69
NtRp4031
(dp4032
g72
(dp4033
sg81
g4027
sg74
(lp4034
g67
(g68
g69
NtRp4035
(dp4036
g72
(dp4037
g80
I2
ssg81
g4031
sg74
(lp4038
g67
(g76
g69
NtRp4039
(dp4040
g72
(dp4041
g80
I1
ssg81
Nsg74
(lp4042
g67
(g83
g69
NtRp4043
(dp4044
g72
(dp4045
sg81
g4039
sg74
(lp4046
g67
(g88
g69
NtRp4047
(dp4048
g72
(dp4049
sg81
g4043
sg74
(lp4050
g67
(g68
g69
NtRp4051
(dp4052
g72
(dp4053
g80
I1
ssg81
g4047
sg74
(lp4054
g3590
(S't\x08\x00\x00\x00Database'
tRp4055
asbasbasbag67
(g83
g69
NtRp4056
(dp4057
g72
(dp4058
sg81
g4039
sg74
(lp4059
g67
(g88
g69
NtRp4060
(dp4061
g72
(dp4062
sg81
g4056
sg74
(lp4063
g67
(g68
g69
NtRp4064
(dp4065
g72
(dp4066
g80
I1
ssg81
g4060
sg74
(lp4067
I00
asbasbasbag67
(g83
g69
NtRp4068
(dp4069
g72
(dp4070
sg81
g4039
sg74
(lp4071
g67
(g88
g69
NtRp4072
(dp4073
g72
(dp4074
sg81
g4068
sg74
(lp4075
g67
(g68
g69
NtRp4076
(dp4077
g72
(dp4078
g80
I1
ssg81
g4072
sg74
(lp4079
S'/init/appadmin/index'
p4080
asbasbasbasbasbasbasbag67
(g83
g69
NtRp4081
(dp4082
g72
(dp4083
sg81
g3699
sg74
(lp4084
g67
(g88
g69
NtRp4085
(dp4086
g72
(dp4087
sg81
g4081
sg74
(lp4088
g67
(g68
g69
NtRp4089
(dp4090
g72
(dp4091
g80
I2
ssg81
g4085
sg74
(lp4092
g67
(g76
g69
NtRp4093
(dp4094
g72
(dp4095
g80
I1
ssg81
Nsg74
(lp4096
g67
(g83
g69
NtRp4097
(dp4098
g72
(dp4099
sg81
g4093
sg74
(lp4100
g67
(g88
g69
NtRp4101
(dp4102
g72
(dp4103
sg81
g4097
sg74
(lp4104
g67
(g68
g69
NtRp4105
(dp4106
g72
(dp4107
g80
I1
ssg81
g4101
sg74
(lp4108
g3590
(S't\x06\x00\x00\x00Errors'
tRp4109
asbasbasbag67
(g83
g69
NtRp4110
(dp4111
g72
(dp4112
sg81
g4093
sg74
(lp4113
g67
(g88
g69
NtRp4114
(dp4115
g72
(dp4116
sg81
g4110
sg74
(lp4117
g67
(g68
g69
NtRp4118
(dp4119
g72
(dp4120
g80
I1
ssg81
g4114
sg74
(lp4121
I00
asbasbasbag67
(g83
g69
NtRp4122
(dp4123
g72
(dp4124
sg81
g4093
sg74
(lp4125
g67
(g88
g69
NtRp4126
(dp4127
g72
(dp4128
sg81
g4122
sg74
(lp4129
g67
(g68
g69
NtRp4130
(dp4131
g72
(dp4132
g80
I1
ssg81
g4126
sg74
(lp4133
S'/admin/default/errors/init'
p4134
asbasbasbasbasbasbasbag67
(g83
g69
NtRp4135
(dp4136
g72
(dp4137
sg81
g3699
sg74
(lp4138
g67
(g88
g69
NtRp4139
(dp4140
g72
(dp4141
sg81
g4135
sg74
(lp4142
g67
(g68
g69
NtRp4143
(dp4144
g72
(dp4145
g80
I2
ssg81
g4139
sg74
(lp4146
g67
(g76
g69
NtRp4147
(dp4148
g72
(dp4149
g80
I1
ssg81
Nsg74
(lp4150
g67
(g83
g69
NtRp4151
(dp4152
g72
(dp4153
sg81
g4147
sg74
(lp4154
g67
(g88
g69
NtRp4155
(dp4156
g72
(dp4157
sg81
g4151
sg74
(lp4158
g67
(g68
g69
NtRp4159
(dp4160
g72
(dp4161
g80
I1
ssg81
g4155
sg74
(lp4162
g3590
(S't\x05\x00\x00\x00About'
tRp4163
asbasbasbag67
(g83
g69
NtRp4164
(dp4165
g72
(dp4166
sg81
g4147
sg74
(lp4167
g67
(g88
g69
NtRp4168
(dp4169
g72
(dp4170
sg81
g4164
sg74
(lp4171
g67
(g68
g69
NtRp4172
(dp4173
g72
(dp4174
g80
I1
ssg81
g4168
sg74
(lp4175
I00
asbasbasbag67
(g83
g69
NtRp4176
(dp4177
g72
(dp4178
sg81
g4147
sg74
(lp4179
g67
(g88
g69
NtRp4180
(dp4181
g72
(dp4182
sg81
g4176
sg74
(lp4183
g67
(g68
g69
NtRp4184
(dp4185
g72
(dp4186
g80
I1
ssg81
g4180
sg74
(lp4187
S'/admin/default/about/init'
p4188
asbasbasbasbasbasbasbasbasbasbasbasbasbasbasbag67
(g83
g69
NtRp4189
(dp4190
g72
(dp4191
sg81
g3558
sg74
(lp4192
g67
(g88
g69
NtRp4193
(dp4194
g72
(dp4195
sg81
g4189
sg74
(lp4196
g67
(g68
g69
NtRp4197
(dp4198
g72
(dp4199
g80
I4
ssg81
g4193
sg74
(lp4200
g67
(g76
g69
NtRp4201
(dp4202
g72
(dp4203
g80
I3
ssg81
Nsg74
(lp4204
g67
(g83
g69
NtRp4205
(dp4206
g72
(dp4207
sg81
g4201
sg74
(lp4208
g67
(g88
g69
NtRp4209
(dp4210
g72
(dp4211
sg81
g4205
sg74
(lp4212
g67
(g68
g69
NtRp4213
(dp4214
g72
(dp4215
g80
I3
ssg81
g4209
sg74
(lp4216
g3590
(S't\t\x00\x00\x00Resources'
tRp4217
asbasbasbag67
(g83
g69
NtRp4218
(dp4219
g72
(dp4220
sg81
g4201
sg74
(lp4221
g67
(g88
g69
NtRp4222
(dp4223
g72
(dp4224
sg81
g4218
sg74
(lp4225
g67
(g68
g69
NtRp4226
(dp4227
g72
(dp4228
g80
I3
ssg81
g4222
sg74
(lp4229
g110
asbasbasbag67
(g83
g69
NtRp4230
(dp4231
g72
(dp4232
sg81
g4201
sg74
(lp4233
g67
(g88
g69
NtRp4234
(dp4235
g72
(dp4236
sg81
g4230
sg74
(lp4237
g67
(g68
g69
NtRp4238
(dp4239
g72
(dp4240
g80
I3
ssg81
g4234
sg74
(lp4241
S'None'
p4242
asbasbasbag67
(g83
g69
NtRp4243
(dp4244
g72
(dp4245
sg81
g4201
sg74
(lp4246
g67
(g88
g69
NtRp4247
(dp4248
g72
(dp4249
sg81
g4243
sg74
(lp4250
g67
(g68
g69
NtRp4251
(dp4252
g72
(dp4253
g80
I3
ssg81
g4247
sg74
(lp4254
g67
(g76
g69
NtRp4255
(dp4256
g72
(dp4257
g80
I2
ssg81
Nsg74
(lp4258
g67
(g83
g69
NtRp4259
(dp4260
g72
(dp4261
sg81
g4255
sg74
(lp4262
g67
(g88
g69
NtRp4263
(dp4264
g72
(dp4265
sg81
g4259
sg74
(lp4266
g67
(g68
g69
NtRp4267
(dp4268
g72
(dp4269
g80
I2
ssg81
g4263
sg74
(lp4270
g67
(g76
g69
NtRp4271
(dp4272
g72
(dp4273
g80
I1
ssg81
Nsg74
(lp4274
g67
(g83
g69
NtRp4275
(dp4276
g72
(dp4277
sg81
g4271
sg74
(lp4278
g67
(g88
g69
NtRp4279
(dp4280
g72
(dp4281
sg81
g4275
sg74
(lp4282
g67
(g68
g69
NtRp4283
(dp4284
g72
(dp4285
g80
I1
ssg81
g4279
sg74
(lp4286
g3590
(S't\r\x00\x00\x00Documentation'
tRp4287
asbasbasbag67
(g83
g69
NtRp4288
(dp4289
g72
(dp4290
sg81
g4271
sg74
(lp4291
g67
(g88
g69
NtRp4292
(dp4293
g72
(dp4294
sg81
g4288
sg74
(lp4295
g67
(g68
g69
NtRp4296
(dp4297
g72
(dp4298
g80
I1
ssg81
g4292
sg74
(lp4299
I00
asbasbasbag67
(g83
g69
NtRp4300
(dp4301
g72
(dp4302
sg81
g4271
sg74
(lp4303
g67
(g88
g69
NtRp4304
(dp4305
g72
(dp4306
sg81
g4300
sg74
(lp4307
g67
(g68
g69
NtRp4308
(dp4309
g72
(dp4310
g80
I1
ssg81
g4304
sg74
(lp4311
S'http://www.web2py.com/book'
p4312
asbasbasbag67
(g83
g69
NtRp4313
(dp4314
g72
(dp4315
sg81
g4271
sg74
(lp4316
g67
(g88
g69
NtRp4317
(dp4318
g72
(dp4319
sg81
g4313
sg74
(lp4320
g67
(g68
g69
NtRp4321
(dp4322
g72
(dp4323
g80
I1
ssg81
g4317
sg74
(lp4324
(lp4325
(g3590
(S't\x07\x00\x00\x00Preface'
tRp4326
I00
S'http://www.web2py.com/book/default/chapter/00'
p4327
tp4328
a(g3590
(S't\x0c\x00\x00\x00Introduction'
tRp4329
I00
S'http://www.web2py.com/book/default/chapter/01'
p4330
tp4331
a(g3590
(S't\x06\x00\x00\x00Python'
tRp4332
I00
S'http://www.web2py.com/book/default/chapter/02'
p4333
tp4334
a(g3590
(S't\x08\x00\x00\x00Overview'
tRp4335
I00
S'http://www.web2py.com/book/default/chapter/03'
p4336
tp4337
a(g3590
(S's\x08\x00\x00\x00The Core'
tRp4338
I00
S'http://www.web2py.com/book/default/chapter/04'
p4339
tp4340
a(g3590
(S's\t\x00\x00\x00The Views'
tRp4341
I00
S'http://www.web2py.com/book/default/chapter/05'
p4342
tp4343
a(g3590
(S't\x08\x00\x00\x00Database'
tRp4344
I00
S'http://www.web2py.com/book/default/chapter/06'
p4345
tp4346
a(g3590
(S's\x14\x00\x00\x00Forms and Validators'
tRp4347
I00
S'http://www.web2py.com/book/default/chapter/07'
p4348
tp4349
a(g3590
(S's\x0e\x00\x00\x00Access Control'
tRp4350
I00
S'http://www.web2py.com/book/default/chapter/08'
p4351
tp4352
a(g3590
(S't\x08\x00\x00\x00Services'
tRp4353
I00
S'http://www.web2py.com/book/default/chapter/09'
p4354
tp4355
a(g3590
(S's\x0c\x00\x00\x00Ajax Recipes'
tRp4356
I00
S'http://www.web2py.com/book/default/chapter/10'
p4357
tp4358
a(g3590
(S's\x12\x00\x00\x00Deployment Recipes'
tRp4359
I00
S'http://www.web2py.com/book/default/chapter/11'
p4360
tp4361
a(g3590
(S's\r\x00\x00\x00Other Recipes'
tRp4362
I00
S'http://www.web2py.com/book/default/chapter/12'
p4363
tp4364
a(g3590
(S's\r\x00\x00\x00Buy this book'
tRp4365
I00
S'http://stores.lulu.com/web2py'
p4366
tp4367
aasbasbasbasbasbasbasbag67
(g83
g69
NtRp4368
(dp4369
g72
(dp4370
sg81
g4255
sg74
(lp4371
g67
(g88
g69
NtRp4372
(dp4373
g72
(dp4374
sg81
g4368
sg74
(lp4375
g67
(g68
g69
NtRp4376
(dp4377
g72
(dp4378
g80
I2
ssg81
g4372
sg74
(lp4379
g67
(g76
g69
NtRp4380
(dp4381
g72
(dp4382
g80
I1
ssg81
Nsg74
(lp4383
g67
(g83
g69
NtRp4384
(dp4385
g72
(dp4386
sg81
g4380
sg74
(lp4387
g67
(g88
g69
NtRp4388
(dp4389
g72
(dp4390
sg81
g4384
sg74
(lp4391
g67
(g68
g69
NtRp4392
(dp4393
g72
(dp4394
g80
I1
ssg81
g4388
sg74
(lp4395
g3590
(S't\t\x00\x00\x00Community'
tRp4396
asbasbasbag67
(g83
g69
NtRp4397
(dp4398
g72
(dp4399
sg81
g4380
sg74
(lp4400
g67
(g88
g69
NtRp4401
(dp4402
g72
(dp4403
sg81
g4397
sg74
(lp4404
g67
(g68
g69
NtRp4405
(dp4406
g72
(dp4407
g80
I1
ssg81
g4401
sg74
(lp4408
I00
asbasbasbag67
(g83
g69
NtRp4409
(dp4410
g72
(dp4411
sg81
g4380
sg74
(lp4412
g67
(g88
g69
NtRp4413
(dp4414
g72
(dp4415
sg81
g4409
sg74
(lp4416
g67
(g68
g69
NtRp4417
(dp4418
g72
(dp4419
g80
I1
ssg81
g4413
sg74
(lp4420
Nasbasbasbag67
(g83
g69
NtRp4421
(dp4422
g72
(dp4423
sg81
g4380
sg74
(lp4424
g67
(g88
g69
NtRp4425
(dp4426
g72
(dp4427
sg81
g4421
sg74
(lp4428
g67
(g68
g69
NtRp4429
(dp4430
g72
(dp4431
g80
I1
ssg81
g4425
sg74
(lp4432
(lp4433
(g3590
(S't\x06\x00\x00\x00Groups'
tRp4434
I00
S'http://www.web2py.com/examples/default/usergroups'
p4435
tp4436
a(g3590
(S't\x07\x00\x00\x00Twitter'
tRp4437
I00
S'http://twitter.com/web2py'
p4438
tp4439
a(g3590
(S's\t\x00\x00\x00Live chat'
tRp4440
I00
S'http://mibbit.com/?channel=%23web2py&server=irc.mibbit.net'
p4441
tp4442
a(g3590
(S's\n\x00\x00\x00User Voice'
tRp4443
I00
S'http://web2py.uservoice.com/'
p4444
tp4445
aasbasbasbasbasbasbasbag67
(g83
g69
NtRp4446
(dp4447
g72
(dp4448
sg81
g4255
sg74
(lp4449
g67
(g88
g69
NtRp4450
(dp4451
g72
(dp4452
sg81
g4446
sg74
(lp4453
g67
(g68
g69
NtRp4454
(dp4455
g72
(dp4456
g80
I2
ssg81
g4450
sg74
(lp4457
g67
(g76
g69
NtRp4458
(dp4459
g72
(dp4460
g80
I1
ssg81
Nsg74
(lp4461
g67
(g83
g69
NtRp4462
(dp4463
g72
(dp4464
sg81
g4458
sg74
(lp4465
g67
(g88
g69
NtRp4466
(dp4467
g72
(dp4468
sg81
g4462
sg74
(lp4469
g67
(g68
g69
NtRp4470
(dp4471
g72
(dp4472
g80
I1
ssg81
g4466
sg74
(lp4473
g3590
(S't\x06\x00\x00\x00Web2py'
tRp4474
asbasbasbag67
(g83
g69
NtRp4475
(dp4476
g72
(dp4477
sg81
g4458
sg74
(lp4478
g67
(g88
g69
NtRp4479
(dp4480
g72
(dp4481
sg81
g4475
sg74
(lp4482
g67
(g68
g69
NtRp4483
(dp4484
g72
(dp4485
g80
I1
ssg81
g4479
sg74
(lp4486
I00
asbasbasbag67
(g83
g69
NtRp4487
(dp4488
g72
(dp4489
sg81
g4458
sg74
(lp4490
g67
(g88
g69
NtRp4491
(dp4492
g72
(dp4493
sg81
g4487
sg74
(lp4494
g67
(g68
g69
NtRp4495
(dp4496
g72
(dp4497
g80
I1
ssg81
g4491
sg74
(lp4498
S'http://www.web2py.com'
p4499
asbasbasbag67
(g83
g69
NtRp4500
(dp4501
g72
(dp4502
sg81
g4458
sg74
(lp4503
g67
(g88
g69
NtRp4504
(dp4505
g72
(dp4506
sg81
g4500
sg74
(lp4507
g67
(g68
g69
NtRp4508
(dp4509
g72
(dp4510
g80
I1
ssg81
g4504
sg74
(lp4511
(lp4512
(g3590
(S't\x08\x00\x00\x00Download'
tRp4513
I00
S'http://www.web2py.com/examples/default/download'
p4514
tp4515
a(g3590
(S't\x07\x00\x00\x00Support'
tRp4516
I00
S'http://www.web2py.com/examples/default/support'
p4517
tp4518
a(g3590
(S's\x0e\x00\x00\x00Quick Examples'
tRp4519
I00
S'http://web2py.com/examples/default/examples'
p4520
tp4521
a(g3590
(S't\x03\x00\x00\x00FAQ'
tRp4522
I00
S'http://web2py.com/AlterEgo'
p4523
tp4524
a(g3590
(S's\x11\x00\x00\x00Free Applications'
tRp4525
I00
S'http://web2py.com/appliances'
p4526
tp4527
a(g3590
(S't\x07\x00\x00\x00Plugins'
tRp4528
I00
S'http://web2py.com/plugins'
p4529
tp4530
a(g3590
(S't\x07\x00\x00\x00Recipes'
tRp4531
I00
S'http://web2pyslices.com/'
p4532
tp4533
a(g3590
(S't\x04\x00\x00\x00Demo'
tRp4534
I00
S'http://web2py.com/demo_admin'
p4535
tp4536
a(g3590
(S't\x08\x00\x00\x00Semantic'
tRp4537
I00
S'http://web2py.com/semantic'
p4538
tp4539
a(g3590
(S't\x07\x00\x00\x00Layouts'
tRp4540
I00
S'http://web2py.com/layouts'
p4541
tp4542
a(g3590
(S't\x06\x00\x00\x00Videos'
tRp4543
I00
S'http://www.web2py.com/examples/default/videos/'
p4544
tp4545
aasbasbasbasbasbasbasbasbasbasbasbasbasbasbasbasbasbasbasbag67
(g83
g69
NtRp4546
(dp4547
g72
(dp4548
sg81
g3085
sg74
(lp4549
g67
(g88
g69
NtRp4550
(dp4551
g72
(dp4552
g92
g93
ssg81
g4546
sg74
(lp4553
S'meta'
p4554
asbag67
(g88
g69
NtRp4555
(dp4556
g72
(dp4557
g99
g100
ssg81
g4546
sg74
(lp4558
S':'
asbag67
(g88
g69
NtRp4559
(dp4560
g72
(dp4561
sg81
g4546
sg74
(lp4562
g67
(g68
g69
NtRp4563
(dp4564
g72
(dp4565
g80
I5
ssg81
g4559
sg74
(lp4566
g67
(g76
g69
NtRp4567
(dp4568
g72
(dp4569
g80
I4
ssg81
Nsg74
(lp4570
g67
(g83
g69
NtRp4571
(dp4572
g72
(dp4573
sg81
g4567
sg74
(lp4574
g67
(g88
g69
NtRp4575
(dp4576
g72
(dp4577
g92
g93
ssg81
g4571
sg74
(lp4578
S'author'
p4579
asbag67
(g88
g69
NtRp4580
(dp4581
g72
(dp4582
g99
g100
ssg81
g4571
sg74
(lp4583
S':'
asbag67
(g88
g69
NtRp4584
(dp4585
g72
(dp4586
sg81
g4571
sg74
(lp4587
g67
(g68
g69
NtRp4588
(dp4589
g72
(dp4590
g80
I4
ssg81
g4584
sg74
(lp4591
S'Your Name <you@example.com>'
p4592
asbasbasbag67
(g83
g69
NtRp4593
(dp4594
g72
(dp4595
sg81
g4567
sg74
(lp4596
g67
(g88
g69
NtRp4597
(dp4598
g72
(dp4599
g92
g93
ssg81
g4593
sg74
(lp4600
S'copyright'
p4601
asbag67
(g88
g69
NtRp4602
(dp4603
g72
(dp4604
g99
g100
ssg81
g4593
sg74
(lp4605
S':'
asbag67
(g88
g69
NtRp4606
(dp4607
g72
(dp4608
sg81
g4593
sg74
(lp4609
g67
(g68
g69
NtRp4610
(dp4611
g72
(dp4612
g80
I4
ssg81
g4606
sg74
(lp4613
S'Copyright 2011'
p4614
asbasbasbag67
(g83
g69
NtRp4615
(dp4616
g72
(dp4617
sg81
g4567
sg74
(lp4618
g67
(g88
g69
NtRp4619
(dp4620
g72
(dp4621
g92
g93
ssg81
g4615
sg74
(lp4622
S'description'
p4623
asbag67
(g88
g69
NtRp4624
(dp4625
g72
(dp4626
g99
g100
ssg81
g4615
sg74
(lp4627
S':'
asbag67
(g88
g69
NtRp4628
(dp4629
g72
(dp4630
sg81
g4615
sg74
(lp4631
g67
(g68
g69
NtRp4632
(dp4633
g72
(dp4634
g80
I4
ssg81
g4628
sg74
(lp4635
S'a cool new app'
p4636
asbasbasbag67
(g83
g69
NtRp4637
(dp4638
g72
(dp4639
sg81
g4567
sg74
(lp4640
g67
(g88
g69
NtRp4641
(dp4642
g72
(dp4643
g92
g93
ssg81
g4637
sg74
(lp4644
S'generator'
p4645
asbag67
(g88
g69
NtRp4646
(dp4647
g72
(dp4648
g99
g100
ssg81
g4637
sg74
(lp4649
S':'
asbag67
(g88
g69
NtRp4650
(dp4651
g72
(dp4652
sg81
g4637
sg74
(lp4653
g67
(g68
g69
NtRp4654
(dp4655
g72
(dp4656
g80
I4
ssg81
g4650
sg74
(lp4657
S'Web2py Web Framework'
p4658
asbasbasbag67
(g83
g69
NtRp4659
(dp4660
g72
(dp4661
sg81
g4567
sg74
(lp4662
g67
(g88
g69
NtRp4663
(dp4664
g72
(dp4665
g92
g93
ssg81
g4659
sg74
(lp4666
S'keywords'
p4667
asbag67
(g88
g69
NtRp4668
(dp4669
g72
(dp4670
g99
g100
ssg81
g4659
sg74
(lp4671
S':'
asbag67
(g88
g69
NtRp4672
(dp4673
g72
(dp4674
sg81
g4659
sg74
(lp4675
g67
(g68
g69
NtRp4676
(dp4677
g72
(dp4678
g80
I4
ssg81
g4672
sg74
(lp4679
S'web2py, python, framework'
p4680
asbasbasbasbasbasbasbag67
(g83
g69
NtRp4681
(dp4682
g72
(dp4683
sg81
g3085
sg74
(lp4684
g67
(g88
g69
NtRp4685
(dp4686
g72
(dp4687
g92
g93
ssg81
g4681
sg74
(lp4688
S'postprocessing'
p4689
asbag67
(g88
g69
NtRp4690
(dp4691
g72
(dp4692
g99
g100
ssg81
g4681
sg74
(lp4693
S':'
asbag67
(g88
g69
NtRp4694
(dp4695
g72
(dp4696
sg81
g4681
sg74
(lp4697
g67
(g68
g69
NtRp4698
(dp4699
g72
(dp4700
g80
I5
ssg81
g4694
sg74
(lp4701
g67
(g76
g69
NtRp4702
(dp4703
g72
(dp4704
g80
I4
ssg81
Nsg74
(lp4705
sbasbasbasbag67
(g83
g69
NtRp4706
(dp4707
g72
(dp4708
sg81
g3085
sg74
(lp4709
g67
(g88
g69
NtRp4710
(dp4711
g72
(dp4712
g92
g93
ssg81
g4706
sg74
(lp4713
S'session_file'
p4714
asbag67
(g88
g69
NtRp4715
(dp4716
g72
(dp4717
g99
g100
ssg81
g4706
sg74
(lp4718
S':'
asbag67
(g88
g69
NtRp4719
(dp4720
g72
(dp4721
sg81
g4706
sg74
(lp4722
g67
(g68
g69
NtRp4723
(dp4724
g72
(dp4725
g80
I5
ssg81
g4719
sg74
(lp4726
S"<open file '/home/bruce/projects/web2py/applications/init/sessions/127.0.0.1-e6ff5279-08ae-40cb-94ee-a8d2a94298b7', mode 'rb+' at 0x430f5d0>"
p4727
asbasbasbag67
(g83
g69
NtRp4728
(dp4729
g72
(dp4730
sg81
g3085
sg74
(lp4731
g67
(g88
g69
NtRp4732
(dp4733
g72
(dp4734
g92
g93
ssg81
g4728
sg74
(lp4735
S'session_filename'
p4736
asbag67
(g88
g69
NtRp4737
(dp4738
g72
(dp4739
g99
g100
ssg81
g4728
sg74
(lp4740
S':'
asbag67
(g88
g69
NtRp4741
(dp4742
g72
(dp4743
sg81
g4728
sg74
(lp4744
g67
(g68
g69
NtRp4745
(dp4746
g72
(dp4747
g80
I5
ssg81
g4741
sg74
(lp4748
S'/home/bruce/projects/web2py/applications/init/sessions/127.0.0.1-e6ff5279-08ae-40cb-94ee-a8d2a94298b7'
p4749
asbasbasbag67
(g83
g69
NtRp4750
(dp4751
g72
(dp4752
sg81
g3085
sg74
(lp4753
g67
(g88
g69
NtRp4754
(dp4755
g72
(dp4756
g92
g93
ssg81
g4750
sg74
(lp4757
S'session_id'
p4758
asbag67
(g88
g69
NtRp4759
(dp4760
g72
(dp4761
g99
g100
ssg81
g4750
sg74
(lp4762
S':'
asbag67
(g88
g69
NtRp4763
(dp4764
g72
(dp4765
sg81
g4750
sg74
(lp4766
g67
(g68
g69
NtRp4767
(dp4768
g72
(dp4769
g80
I5
ssg81
g4763
sg74
(lp4770
S'127.0.0.1-e6ff5279-08ae-40cb-94ee-a8d2a94298b7'
p4771
asbasbasbag67
(g83
g69
NtRp4772
(dp4773
g72
(dp4774
sg81
g3085
sg74
(lp4775
g67
(g88
g69
NtRp4776
(dp4777
g72
(dp4778
g92
g93
ssg81
g4772
sg74
(lp4779
S'session_id_name'
p4780
asbag67
(g88
g69
NtRp4781
(dp4782
g72
(dp4783
g99
g100
ssg81
g4772
sg74
(lp4784
S':'
asbag67
(g88
g69
NtRp4785
(dp4786
g72
(dp4787
sg81
g4772
sg74
(lp4788
g67
(g68
g69
NtRp4789
(dp4790
g72
(dp4791
g80
I5
ssg81
g4785
sg74
(lp4792
g3142
asbasbasbag67
(g83
g69
NtRp4793
(dp4794
g72
(dp4795
sg81
g3085
sg74
(lp4796
g67
(g88
g69
NtRp4797
(dp4798
g72
(dp4799
g92
g93
ssg81
g4793
sg74
(lp4800
S'session_locked'
p4801
asbag67
(g88
g69
NtRp4802
(dp4803
g72
(dp4804
g99
g100
ssg81
g4793
sg74
(lp4805
S':'
asbag67
(g88
g69
NtRp4806
(dp4807
g72
(dp4808
sg81
g4793
sg74
(lp4809
g67
(g68
g69
NtRp4810
(dp4811
g72
(dp4812
g80
I5
ssg81
g4806
sg74
(lp4813
g1687
asbasbasbag67
(g83
g69
NtRp4814
(dp4815
g72
(dp4816
sg81
g3085
sg74
(lp4817
g67
(g88
g69
NtRp4818
(dp4819
g72
(dp4820
g92
g93
ssg81
g4814
sg74
(lp4821
S'session_new'
p4822
asbag67
(g88
g69
NtRp4823
(dp4824
g72
(dp4825
g99
g100
ssg81
g4814
sg74
(lp4826
S':'
asbag67
(g88
g69
NtRp4827
(dp4828
g72
(dp4829
sg81
g4814
sg74
(lp4830
g67
(g68
g69
NtRp4831
(dp4832
g72
(dp4833
g80
I5
ssg81
g4827
sg74
(lp4834
g110
asbasbasbag67
(g83
g69
NtRp4835
(dp4836
g72
(dp4837
sg81
g3085
sg74
(lp4838
g67
(g88
g69
NtRp4839
(dp4840
g72
(dp4841
g92
g93
ssg81
g4835
sg74
(lp4842
S'status'
p4843
asbag67
(g88
g69
NtRp4844
(dp4845
g72
(dp4846
g99
g100
ssg81
g4835
sg74
(lp4847
S':'
asbag67
(g88
g69
NtRp4848
(dp4849
g72
(dp4850
sg81
g4835
sg74
(lp4851
g67
(g68
g69
NtRp4852
(dp4853
g72
(dp4854
g80
I5
ssg81
g4848
sg74
(lp4855
S'200'
p4856
asbasbasbag67
(g83
g69
NtRp4857
(dp4858
g72
(dp4859
sg81
g3085
sg74
(lp4860
g67
(g88
g69
NtRp4861
(dp4862
g72
(dp4863
g92
g93
ssg81
g4857
sg74
(lp4864
S'subtitle'
p4865
asbag67
(g88
g69
NtRp4866
(dp4867
g72
(dp4868
g99
g100
ssg81
g4857
sg74
(lp4869
S':'
asbag67
(g88
g69
NtRp4870
(dp4871
g72
(dp4872
sg81
g4857
sg74
(lp4873
g67
(g68
g69
NtRp4874
(dp4875
g72
(dp4876
g80
I5
ssg81
g4870
sg74
(lp4877
g3590
(S's\r\x00\x00\x00customize me!'
tRp4878
asbasbasbag67
(g83
g69
NtRp4879
(dp4880
g72
(dp4881
sg81
g3085
sg74
(lp4882
g67
(g88
g69
NtRp4883
(dp4884
g72
(dp4885
g92
g93
ssg81
g4879
sg74
(lp4886
S'title'
p4887
asbag67
(g88
g69
NtRp4888
(dp4889
g72
(dp4890
g99
g100
ssg81
g4879
sg74
(lp4891
S':'
asbag67
(g88
g69
NtRp4892
(dp4893
g72
(dp4894
sg81
g4879
sg74
(lp4895
g67
(g68
g69
NtRp4896
(dp4897
g72
(dp4898
g80
I5
ssg81
g4892
sg74
(lp4899
g132
asbasbasbag67
(g83
g69
NtRp4900
(dp4901
g72
(dp4902
sg81
g3085
sg74
(lp4903
g67
(g88
g69
NtRp4904
(dp4905
g72
(dp4906
g92
g93
ssg81
g4900
sg74
(lp4907
g2351
asbag67
(g88
g69
NtRp4908
(dp4909
g72
(dp4910
g99
g100
ssg81
g4900
sg74
(lp4911
S':'
asbag67
(g88
g69
NtRp4912
(dp4913
g72
(dp4914
sg81
g4900
sg74
(lp4915
g67
(g68
g69
NtRp4916
(dp4917
g72
(dp4918
g80
I5
ssg81
g4912
sg74
(lp4919
g2364
asbasbasbag67
(g83
g69
NtRp4920
(dp4921
g72
(dp4922
sg81
g3085
sg74
(lp4923
g67
(g88
g69
NtRp4924
(dp4925
g72
(dp4926
g92
g93
ssg81
g4920
sg74
(lp4927
S'view'
p4928
asbag67
(g88
g69
NtRp4929
(dp4930
g72
(dp4931
g99
g100
ssg81
g4920
sg74
(lp4932
S':'
asbag67
(g88
g69
NtRp4933
(dp4934
g72
(dp4935
sg81
g4920
sg74
(lp4936
g67
(g68
g69
NtRp4937
(dp4938
g72
(dp4939
g80
I5
ssg81
g4933
sg74
(lp4940
S'default/index.html'
p4941
asbasbasbasbasbsS'locals'
p4942
(dp4943
g4
S"'/home/bruce/projects/web2py/applications/init/views/default/index.html'"
p4944
sg6
S'\'response.write(\\\'<!DOCTYPE html>\\\\n<html lang="en"...script>\\\\n\\\\n  \\\\n\\\\n</body></html>\\\\n\\\', escape=False)\''
p4945
sssS'traceback'
p4946
S'Traceback (most recent call last):\n  File "/home/bruce/projects/web2py/gluon/restricted.py", line 203, in restricted\n    ccode = compile2(code,layer)\n  File "/home/bruce/projects/web2py/gluon/restricted.py", line 189, in compile2\n    return compile(code.rstrip().replace(\'\\r\\n\',\'\\n\')+\'\\n\', layer, \'exec\')\n  File "/home/bruce/projects/web2py/applications/init/views/default/index.html", line 3\n    response.write(\'" rel="stylesheet">\\n    <link href="index_files/docs.css" rel="stylesheet">\\n    <link href="index_files/prettify.css" rel="stylesheet">\\n\\n    <!-- Le fav and touch icons -->\\n    <link rel="shortcut icon" href="index_files/favicon.ico">\\n  </head>\\n\\n  <body data-rendering="true">\\n\\n    <!-- Navbar\\n    ================================================== -->\\n    <div class="navbar navbar-fixed" data-scrollspy="scrollspy">\\n      <div class="navbar-inner">\\n        <div class="container">\\n          <a class="brand" href="http://mrtopf.de/bootstrap/docs/index.html">Movuca The Social CMS</a>\\n          <ul class="nav">\\n            <li><a href="/">Home</a></li>\\n            <li><a href="http://movu.ca/demo" target="_blank">Demo</a></li>\\n            <li><a href="http://github.com/rochacbruno/Movuca" target="_blank">Github</a></li>\\n          </ul>\\n        </div>\\n      </div>\\n    </div>\\n\\n    <div class="container">\\n\\n      <div id="overview">\\n\\n        <!-- Masthead\\n        ================================================== -->\\n        <header class="jumbotron masthead">\\n          <div class="inner">\\n            <img src="index_files/logo.png" width=300 />\\n            <br /><br />\\n            <p class="lead">Movuca is a social network and CMS platform. Movuca is open source, flexible, easy to customize, deploy and use.</p>\\n            <p class="download-info">\\n              <a href="https://github.com/rochacbruno/movuca/" class="btn  btn-large">Download on GitHub</a>\\n              <a href="http://movu.ca/demo" class="btn primary btn-large"> Demo \\xe2\\x86\\x92</a>\\n              Currently v0.0.1 (alpha)\\n            </p>\\n\\n            <div class="benefits">\\n              <h4>Feature highlights</h4>\\n              <ul>\\n                <li><span>\\xc3\\x97</span> Built on Python and web2py</li>\\n                <li><span>\\xc3\\x97</span> Complete docs</li>\\n                <li><span>\\xc3\\x97</span> Multiple content types</li>\\n                <li><span>\\xc3\\x97</span> Fast and scalable</li>\\n                <li><span>\\xc3\\x97</span> Custom plugins and modules</li>\\n                <li><span>\\xc3\\x97</span> Easy to design themes</li>\\n                <li><span>\\xc3\\x97</span> Dozens of components</li>\\n              </ul>\\n            </div>\\n          </div>\\n        </header>\\n\\n        <ul class="quick-links">\\n          <li><strong>Quick links</strong></li>\\n          <li><a href="https://github.com/rochacbruno/movuca">GitHub</a></li>\\n          <li><a href="https://github.com/rochacbruno/movuca/issues?state=open">Issues</a></li>\\n          <li><a href="https://github.com/rochacbruno/movuca/Roadmap">Roadmap</a></li>\\n          <li><a href="https://github.com/rochacbruno/movuca/Changelog">Changelog</a></li>\\n          <li class="divider">\\xc2\\xb7</li>\\n\\n          <li>\\n            <iframe class="github-btn" src="http://markdotto.github.com/github-buttons/github-btn.html?user=rochacbruno&repo=Movuca&type=watch&count=true"\\n  allowtransparency="true" frameborder="0" scrolling="0" width="110px" height="20px"></iframe>\\n          </li>\\n\\n          <li>\\n            <iframe class="github-btn" src="http://markdotto.github.com/github-buttons/github-btn.html?user=rochacbruno&repo=Movuca&type=fork&count=true"\\n  allowtransparency="true" frameborder="0" scrolling="0" width="95px" height="20px"></iframe>\\n          </li>\\n\\n          <li class="divider">\\xc2\\xb7</li>\\n          <li class="follow-btn">\\n            <a href="https://twitter.com/movucacms" class="twitter-follow-button" data-width="145px" data-link-color="#0069D6" data-show-count="false">Follow @movucacms</a><script src="http://platform.twitter.com/widgets.js" type="text/javascript"></script>\\n          </li>\\n\\n          <li class="tweet-btn">\\n            <a href="https://twitter.com/share" class="twitter-share-button" data-url="http://movu.ca" data-count="horizontal" data-via="movucacms" data-related="movucacms:The Social CMS">Tweet</a><script type="text/javascript" src="http://platform.twitter.com/widgets.js"></script>\\n          </li>\\n        </ul>\\n\\n\\n        <div class="marketing">\\n         \\n\\n          <h1>Create - Explore - Share</h1>\\n          <div class="row">\\n            <div class="span4">\\n              <img class="icon" src="index_files/glyphicons_042_group.png">\\n              <h2>Social impact</h2>\\n              <p>Web-based social networking services make it possible to connect people who share interests and activities across political, economic, and geographic borders.</p>\\n            </div>\\n            <div class="span4">\\n              <img class="icon" src="index_files/glyphicons_079_podium.png">\\n              <h2>Business Applications</h2>\\n              <p>Connect people at low cost; this can be beneficial for entrepreneurs and small businesses looking to expand their contact bases. These networks often act as a customer relationship management tool for companies selling products and services.</p>\\n            </div>\\n            <div class="span4">\\n              <img class="icon" src="index_files/glyphicons_163_iphone.png">\\n              <h2>Cross-everything</h2>\\n              <p>Themes adaptated to be used in mobile - tablets and smartphones, too. (coming an Android & iPhone app for RSS feeds)</p>\\n            </div>\\n          </div><!--/row-->\\n          <div class="row">\\n            <div class="span4">\\n              <img class="icon" src="index_files/glyphicons_155_show_thumbnails.png">\\n              <h2>Multiple content types</h2>\\n              <p>Content can be defined as nearly anything: documents, movies, text, pictures, phone numbers, scientific data, and so forth..</p>\\n            </div>\\n            <div class="span4">\\n              <img class="icon" src="index_files/glyphicons_214_resize_small.png">\\n              <h2>Customizable</h2>\\n              <p>Easy to customize, create new modules, define new content types and personalize the layout with a CSS/HTML Theme.</p>\\n            </div>\\n            <div class="span4">\\n              <img class="icon" src="index_files/glyphicons_266_book_open.png">\\n              <h2>Documentation</h2>\\n              <p>Fully documented API and a lot of examples on how to create your own content types.</p>\\n            </div>\\n          </div><!--/row-->\\n          <div class="row">\\n            <div class="span4">\\n              <img class="icon" src="index_files/glyphicons_082_roundabout.png">\\n              <h2>Active Development</h2>\\n              <p>Derived from the work of web2py development team, the development of Movuca is very active and commited to security, compatibility and easy of use.</p>\\n            </div>\\n            <div class="span4">\\n              <img class="icon" src="index_files/glyphicons_009_magic.png">\\n              <h2>Deploy like a magic</h2>\\n              <p>Easy to deploy your own Social web site on any Python hosting service.</p>\\n            </div>\\n            <div class="span4">\\n              <img class="icon" src="index_files/mongo_black.png">\\n              <h2>Scalable</h2>\\n              <p>No problem if you go from 10 to thousand users. Movuca is prepared to scale using the best of tools like Mongo, PostGres, Nginx and Redis.</p>\\n            </div>\\n          </div><!--/row-->\\n          <div class="row">\\n            <div class="span3">\\n              <img class="small-icon" src="index_files/python_black.png">\\n              <h3>Python</h3>\\n              <p>Powered by the best programming language...</p>\\n            </div>\\n            <div class="span3">\\n              <img class="small-icon" src="index_files/web2py_black.png">\\n              <h3>web2py</h3>\\n              <p>... on top of the best web development MVC framework.</p>\\n            </div>\\n            <div class="span3">\\n              <img class="small-icon" src="index_files/icon-github.png">\\n              <h3>Open-source</h3>\\n              <p>Built for and maintained by the community via <a href="https://github.com/rochacbruno/Movuca">Our GitHub (join us)</a>.</p>\\n            </div>\\n            <div class="span3">\\n              <img class="small-icon" src="index_files/icon-blouweb.png">\\n              <h3>Made at Blouweb</h3>\\n              <p>Brought to you by an experienced <a href="http://twitter.com/blouweb">web development team</a>.</p>\\n            </div>\\n          </div><!--/row-->\\n\\n\\n          <h1>Give it a try!</h1>\\n          <ul class="media-grid example-sites">\\n             <li style="text-align:center;">\\n              <a href="http://movu.ca/demo" target="_blank">\\n                <img src="index_files/home.png" alt="Home">\\n                <span>Index page with social modules</span>\\n              </a>\\n            </li>\\n             <li style="text-align:center;">\\n              <a href="http://movu.ca/demo" target="_blank">\\n                <img src="index_files/create.png" alt="Create">\\n                <span>Rich text editor and media gallery</span>\\n              </a>\\n            </li>\\n            <li style="text-align:center;">\\n              <a href="http://movu.ca/demo" target="_blank">\\n                <img src="index_files/profile.png" alt="Profile">\\n                <span>User profiles</span>\\n              </a>\\n            </li>\\n          </ul>\\n\\n\\n\\n        </div>\\n\\n      </div><!-- /#overview -->\\n\\n\\n      <!-- Footer\\n      ================================================== -->\\n      <footer class="footer">\\n        <p class="pull-right"><a href="#">Back to top</a></p>\\n        <p>This dite is designed using Twitter bootstrap <a href="http://twitter.com/twitter" target="_blank">@twitter</a></p>\\n        <!-- p>Code licensed under the <a href="http://www.apache.org/licenses/LICENSE-2.0" target="_blank">Apache License v2.0</a>. Documentation licensed under <a href="http://creativecommons.org/licenses/by/3.0/">CC BY 3.0</a>.</p -->\\n        <p>Icons from <a href="http://glyphicons.com/">Glyphicons Free</a>, licensed under <a href="http://creativecommons.org/licenses/by/3.0/">CC BY 3.0</a>.</p>\\n      </footer>\\n    </div><!-- /container -->\\n\\n    <!-- Le javascript -->\\n    <!-- Placed at the end of the document so the pages load faster -->\\n    <script src="index_files/jquery-1.js"></script>\\n\\n    <script type="text/javascript">\\n      // When ready...\\n      window.addEventListener("load",function() {\\n        // Set a timeout...\\n        setTimeout(function(){\\n          // Hide the address bar!\\n          window.scrollTo(0, 1);\\n        }, 0);\\n      });\\n\\n      // NOT FINAL BY ANY MEANS, JUST MAH JANK CODE BRO\\n      $(document).ready(function() {\\n        $(\\\'.nav .active\\\').click(function(e) {\\n          e.preventDefault();\\n          $(this).siblings().toggle();\\n        });\\n      });\\n    </script>\\n\\n    <script src="index_files/jquery.js"></script>\\n    <script src="index_files/prettify.js"></script>\\n    <script>$(function () { prettyPrint() })</script>\\n    <script src="index_files/bootstrap-transitions.js"></script>\\n    <script src="index_files/bootstrap-dropdown.js"></script>\\n    <script src="index_files/bootstrap-twipsy.js"></script>\\n    <script src="index_files/bootstrap-scrollspy.js"></script>\\n    <script src="index_files/application.js"></script>\\n\\n  \\n\\n</body></html>\\n\', escape=False)\n           ^\nSyntaxError: invalid syntax\n'
p4947
s.